

Microchip MPLAB XC8 Assembler V2.10 build 88905656 
                                                                                               Fri Jan 24 09:30:04 2020

Microchip MPLAB XC8 C Compiler v2.10 (Free license) build 20190730164152 Og1 
     1                           	processor	16F877A
     2                           	opt	pw 120
     3                           	opt	flic
     4                           	psect	cinit,global,class=CODE,merge=1,delta=2
     5                           	psect	cstackBANK1,global,class=BANK1,space=1,delta=1
     6                           	psect	cstackCOMMON,global,class=COMMON,space=1,delta=1
     7                           	psect	cstackBANK0,global,class=BANK0,space=1,delta=1
     8                           	psect	maintext,global,class=CODE,split=1,delta=2
     9                           	psect	text1,local,class=CODE,merge=1,delta=2,group=1
    10                           	psect	text2,local,class=CODE,merge=1,delta=2
    11                           	psect	text3,local,class=CODE,merge=1,delta=2
    12                           	psect	text4,local,class=CODE,merge=1,delta=2,group=1
    13                           	psect	text5,local,class=CODE,merge=1,delta=2,group=1
    14                           	psect	text6,local,class=CODE,merge=1,delta=2,group=1
    15                           	psect	text7,local,class=CODE,merge=1,delta=2,group=1
    16                           	psect	text8,local,class=CODE,merge=1,delta=2,group=1
    17                           	psect	text9,local,class=CODE,merge=1,delta=2,group=1
    18                           	psect	text10,local,class=CODE,merge=1,delta=2
    19                           	psect	text11,local,class=CODE,merge=1,delta=2,group=1
    20                           	psect	text12,local,class=CODE,merge=1,delta=2,group=1
    21                           	psect	text13,local,class=CODE,merge=1,delta=2,group=1
    22                           	psect	text14,local,class=CODE,merge=1,delta=2
    23                           	psect	text15,local,class=CODE,merge=1,delta=2
    24                           	psect	text16,local,class=CODE,merge=1,delta=2
    25                           	psect	text17,local,class=CODE,merge=1,delta=2
    26                           	psect	text18,local,class=CODE,merge=1,delta=2
    27                           	dabs	1,0x7E,2
    28  0000                     
    29                           ; Version 2.10
    30                           ; Generated 31/07/2019 GMT
    31                           ; 
    32                           ; Copyright © 2019, Microchip Technology Inc. and its subsidiaries ("Microchip")
    33                           ; All rights reserved.
    34                           ; 
    35                           ; This software is developed by Microchip Technology Inc. and its subsidiaries ("Microch
      +                          ip").
    36                           ; 
    37                           ; Redistribution and use in source and binary forms, with or without modification, are
    38                           ; permitted provided that the following conditions are met:
    39                           ; 
    40                           ;     1. Redistributions of source code must retain the above copyright notice, this lis
      +                          t of
    41                           ;        conditions and the following disclaimer.
    42                           ; 
    43                           ;     2. Redistributions in binary form must reproduce the above copyright notice, this 
      +                          list
    44                           ;        of conditions and the following disclaimer in the documentation and/or other
    45                           ;        materials provided with the distribution.
    46                           ; 
    47                           ;     3. Microchip's name may not be used to endorse or promote products derived from th
      +                          is
    48                           ;        software without specific prior written permission.
    49                           ; 
    50                           ; THIS SOFTWARE IS PROVIDED BY MICROCHIP "AS IS" AND ANY EXPRESS OR IMPLIED WARRANTIES,
    51                           ; INCLUDING, BUT NOT LIMITED TO, THE IMPLIED WARRANTIES OF MERCHANTABILITY AND FITNESS F
      +                          OR
    52                           ; PURPOSE ARE DISCLAIMED.  IN NO EVENT SHALL MICROCHIP BE LIABLE FOR ANY DIRECT, INDIREC
      +                          T,
    53                           ; INCIDENTAL, SPECIAL, EXEMPLARY, OR CONSEQUENTIAL DAMAGES (INCLUDING BUT NOT LIMITED TO
    54                           ; PROCUREMENT OF SUBSTITUTE GOODS OR SERVICES; LOSS OF USE, DATA OR PROFITS; OR BUSINESS
    55                           ; INTERRUPTION) HOWSOEVER CAUSED AND ON ANY THEORY OF LIABILITY, WHETHER IN CONTRACT, ST
      +                          RICT
    56                           ; LIABILITY, OR TORT (INCLUDING NEGLIGENCE OR OTHERWISE) ARISING IN ANY WAY OUT OF THE U
      +                          SE OF
    57                           ; THIS SOFTWARE, EVEN IF ADVISED OF THE POSSIBILITY OF SUCH DAMAGE.
    58                           ; 
    59                           ; 
    60                           ; Code-generator required, PIC16F877A Definitions
    61                           ; 
    62                           ; SFR Addresses
    63  0000                     	;# 
    64  0001                     	;# 
    65  0002                     	;# 
    66  0003                     	;# 
    67  0004                     	;# 
    68  0005                     	;# 
    69  0006                     	;# 
    70  0007                     	;# 
    71  0008                     	;# 
    72  0009                     	;# 
    73  000A                     	;# 
    74  000B                     	;# 
    75  000C                     	;# 
    76  000D                     	;# 
    77  000E                     	;# 
    78  000E                     	;# 
    79  000F                     	;# 
    80  0010                     	;# 
    81  0011                     	;# 
    82  0012                     	;# 
    83  0013                     	;# 
    84  0014                     	;# 
    85  0015                     	;# 
    86  0015                     	;# 
    87  0016                     	;# 
    88  0017                     	;# 
    89  0018                     	;# 
    90  0019                     	;# 
    91  001A                     	;# 
    92  001B                     	;# 
    93  001B                     	;# 
    94  001C                     	;# 
    95  001D                     	;# 
    96  001E                     	;# 
    97  001F                     	;# 
    98  0081                     	;# 
    99  0085                     	;# 
   100  0086                     	;# 
   101  0087                     	;# 
   102  0088                     	;# 
   103  0089                     	;# 
   104  008C                     	;# 
   105  008D                     	;# 
   106  008E                     	;# 
   107  0091                     	;# 
   108  0092                     	;# 
   109  0093                     	;# 
   110  0094                     	;# 
   111  0098                     	;# 
   112  0099                     	;# 
   113  009C                     	;# 
   114  009D                     	;# 
   115  009E                     	;# 
   116  009F                     	;# 
   117  010C                     	;# 
   118  010D                     	;# 
   119  010E                     	;# 
   120  010F                     	;# 
   121  018C                     	;# 
   122  018D                     	;# 
   123  0000                     	;# 
   124  0001                     	;# 
   125  0002                     	;# 
   126  0003                     	;# 
   127  0004                     	;# 
   128  0005                     	;# 
   129  0006                     	;# 
   130  0007                     	;# 
   131  0008                     	;# 
   132  0009                     	;# 
   133  000A                     	;# 
   134  000B                     	;# 
   135  000C                     	;# 
   136  000D                     	;# 
   137  000E                     	;# 
   138  000E                     	;# 
   139  000F                     	;# 
   140  0010                     	;# 
   141  0011                     	;# 
   142  0012                     	;# 
   143  0013                     	;# 
   144  0014                     	;# 
   145  0015                     	;# 
   146  0015                     	;# 
   147  0016                     	;# 
   148  0017                     	;# 
   149  0018                     	;# 
   150  0019                     	;# 
   151  001A                     	;# 
   152  001B                     	;# 
   153  001B                     	;# 
   154  001C                     	;# 
   155  001D                     	;# 
   156  001E                     	;# 
   157  001F                     	;# 
   158  0081                     	;# 
   159  0085                     	;# 
   160  0086                     	;# 
   161  0087                     	;# 
   162  0088                     	;# 
   163  0089                     	;# 
   164  008C                     	;# 
   165  008D                     	;# 
   166  008E                     	;# 
   167  0091                     	;# 
   168  0092                     	;# 
   169  0093                     	;# 
   170  0094                     	;# 
   171  0098                     	;# 
   172  0099                     	;# 
   173  009C                     	;# 
   174  009D                     	;# 
   175  009E                     	;# 
   176  009F                     	;# 
   177  010C                     	;# 
   178  010D                     	;# 
   179  010E                     	;# 
   180  010F                     	;# 
   181  018C                     	;# 
   182  018D                     	;# 
   183  0006                     _PORTB	set	6
   184  001E                     _ADRESH	set	30
   185  001F                     _ADCON0	set	31
   186  0040                     _RD0	set	64
   187  003A                     _RC2	set	58
   188  0038                     _RC0	set	56
   189  00FA                     _GO_nDONE	set	250
   190  0088                     _TRISD	set	136
   191  0087                     _TRISC	set	135
   192  0086                     _TRISB	set	134
   193  009E                     _ADRESL	set	158
   194  009F                     _ADCON1	set	159
   195                           
   196                           	psect	cinit
   197  07FC                     start_initialization:	
   198                           ; #config settings
   199                           
   200  07FC                     __initialization:	
   201  07FC                     end_of_initialization:	
   202                           ;End of C runtime variable initialization code
   203                           
   204  07FC                     __end_of__initialization:	
   205  07FC  0183               	clrf	3
   206  07FD  120A  118A  2946   	ljmp	_main	;jump to C main() function
   207                           
   208                           	psect	cstackBANK1
   209  00A0                     __pcstackBANK1:	
   210  00A0                     main@adc:	
   211                           
   212                           ; 2 bytes @ 0x0
   213  00A0                     	ds	2
   214  00A2                     main@input:	
   215                           
   216                           ; 4 bytes @ 0x2
   217  00A2                     	ds	4
   218                           
   219                           	psect	cstackCOMMON
   220  0070                     __pcstackCOMMON:	
   221  0070                     ?___flge:	
   222  0070                     ?_ADC_Init:	
   223                           ; 1 bit 
   224                           
   225  0070                     ??_ADC_Init:	
   226                           ; 1 bytes @ 0x0
   227                           
   228  0070                     ?_Lcd_Cmd:	
   229                           ; 1 bytes @ 0x0
   230                           
   231  0070                     ??_Lcd_Cmd:	
   232                           ; 1 bytes @ 0x0
   233                           
   234  0070                     ?_Lcd_Start:	
   235                           ; 1 bytes @ 0x0
   236                           
   237  0070                     ?_Lcd_Print_Char:	
   238                           ; 1 bytes @ 0x0
   239                           
   240  0070                     ??_Lcd_Print_Char:	
   241                           ; 1 bytes @ 0x0
   242                           
   243  0070                     ?__Umul8_16:	
   244                           ; 1 bytes @ 0x0
   245                           
   246  0070                     ?_ADC_Read:	
   247                           ; 2 bytes @ 0x0
   248                           
   249  0070                     ?_Lcd_Clear:	
   250                           ; 2 bytes @ 0x0
   251                           
   252  0070                     ?_main:	
   253                           ; 2 bytes @ 0x0
   254                           
   255  0070                     ?___wmul:	
   256                           ; 2 bytes @ 0x0
   257                           
   258  0070                     ?___awdiv:	
   259                           ; 2 bytes @ 0x0
   260                           
   261  0070                     ?___awmod:	
   262                           ; 2 bytes @ 0x0
   263                           
   264  0070                     ?___fladd:	
   265                           ; 2 bytes @ 0x0
   266                           
   267  0070                     __Umul8_16@multiplicand:	
   268                           ; 4 bytes @ 0x0
   269                           
   270  0070                     ___wmul@multiplier:	
   271                           ; 1 bytes @ 0x0
   272                           
   273  0070                     ___awdiv@divisor:	
   274                           ; 2 bytes @ 0x0
   275                           
   276  0070                     ___awmod@divisor:	
   277                           ; 2 bytes @ 0x0
   278                           
   279  0070                     ___flge@ff1:	
   280                           ; 2 bytes @ 0x0
   281                           
   282  0070                     ___fladd@b:	
   283                           ; 4 bytes @ 0x0
   284                           
   285                           
   286                           ; 4 bytes @ 0x0
   287  0070                     	ds	2
   288  0072                     ??__Umul8_16:	
   289  0072                     ??_ADC_Read:	
   290                           ; 1 bytes @ 0x2
   291                           
   292  0072                     Lcd_Cmd@a:	
   293                           ; 1 bytes @ 0x2
   294                           
   295  0072                     Lcd_Print_Char@data:	
   296                           ; 1 bytes @ 0x2
   297                           
   298  0072                     ___wmul@multiplicand:	
   299                           ; 1 bytes @ 0x2
   300                           
   301  0072                     ___awdiv@dividend:	
   302                           ; 2 bytes @ 0x2
   303                           
   304  0072                     ___awmod@dividend:	
   305                           ; 2 bytes @ 0x2
   306                           
   307                           
   308                           ; 2 bytes @ 0x2
   309  0072                     	ds	1
   310  0073                     ??_Lcd_Clear:	
   311  0073                     ??_Lcd_Start:	
   312                           ; 1 bytes @ 0x3
   313                           
   314                           
   315                           ; 1 bytes @ 0x3
   316  0073                     	ds	1
   317  0074                     ??___wmul:	
   318  0074                     ??___awdiv:	
   319                           ; 1 bytes @ 0x4
   320                           
   321  0074                     ??___awmod:	
   322                           ; 1 bytes @ 0x4
   323                           
   324  0074                     ADC_Read@channel:	
   325                           ; 1 bytes @ 0x4
   326                           
   327  0074                     ___wmul@product:	
   328                           ; 1 bytes @ 0x4
   329                           
   330  0074                     __Umul8_16@product:	
   331                           ; 2 bytes @ 0x4
   332                           
   333  0074                     ___flge@ff2:	
   334                           ; 2 bytes @ 0x4
   335                           
   336  0074                     ___fladd@a:	
   337                           ; 4 bytes @ 0x4
   338                           
   339                           
   340                           ; 4 bytes @ 0x4
   341  0074                     	ds	1
   342  0075                     ___awdiv@counter:	
   343  0075                     ___awmod@counter:	
   344                           ; 1 bytes @ 0x5
   345                           
   346                           
   347                           ; 1 bytes @ 0x5
   348  0075                     	ds	1
   349  0076                     ___awdiv@sign:	
   350  0076                     ___awmod@sign:	
   351                           ; 1 bytes @ 0x6
   352                           
   353  0076                     __Umul8_16@word_mpld:	
   354                           ; 1 bytes @ 0x6
   355                           
   356                           
   357                           ; 2 bytes @ 0x6
   358  0076                     	ds	1
   359  0077                     ___awdiv@quotient:	
   360                           
   361                           ; 2 bytes @ 0x7
   362  0077                     	ds	1
   363  0078                     ??___flge:	
   364  0078                     ___fladd@signs:	
   365                           ; 1 bytes @ 0x8
   366                           
   367  0078                     __Umul8_16@multiplier:	
   368                           ; 1 bytes @ 0x8
   369                           
   370                           
   371                           ; 1 bytes @ 0x8
   372  0078                     	ds	1
   373  0079                     ___fladd@aexp:	
   374                           
   375                           ; 1 bytes @ 0x9
   376  0079                     	ds	1
   377  007A                     ___fladd@bexp:	
   378                           
   379                           ; 1 bytes @ 0xA
   380  007A                     	ds	1
   381  007B                     ___fladd@grs:	
   382                           
   383                           ; 1 bytes @ 0xB
   384  007B                     	ds	1
   385  007C                     ??___flsub:	
   386  007C                     ___fltol@sign1:	
   387                           ; 1 bytes @ 0xC
   388                           
   389                           
   390                           ; 1 bytes @ 0xC
   391  007C                     	ds	1
   392  007D                     ___fltol@exp1:	
   393                           
   394                           ; 1 bytes @ 0xD
   395  007D                     	ds	1
   396  007E                     ??_Lcd_Print_Num:	
   397  007E                     ??_Lcd_Print_Float:	
   398                           ; 1 bytes @ 0xE
   399                           
   400  007E                     ??_main:	
   401                           ; 1 bytes @ 0xE
   402                           
   403                           
   404                           	psect	cstackBANK0
   405  0020                     __pcstackBANK0:	
   406                           ; 1 bytes @ 0xE
   407                           
   408  0020                     ??___fladd:	
   409                           
   410                           ; 1 bytes @ 0x0
   411  0020                     	ds	8
   412  0028                     ?___flsub:	
   413  0028                     ___flsub@a:	
   414                           ; 4 bytes @ 0x8
   415                           
   416                           
   417                           ; 4 bytes @ 0x8
   418  0028                     	ds	4
   419  002C                     ___flsub@b:	
   420                           
   421                           ; 4 bytes @ 0xC
   422  002C                     	ds	4
   423  0030                     ?___fltol:	
   424  0030                     ___fltol@f1:	
   425                           ; 4 bytes @ 0x10
   426                           
   427                           
   428                           ; 4 bytes @ 0x10
   429  0030                     	ds	4
   430  0034                     ??___fltol:	
   431                           
   432                           ; 1 bytes @ 0x14
   433  0034                     	ds	5
   434  0039                     ?_Lcd_Print_Num:	
   435  0039                     ?___xxtofl:	
   436                           ; 1 bytes @ 0x19
   437                           
   438  0039                     Lcd_Print_Num@num:	
   439                           ; 4 bytes @ 0x19
   440                           
   441  0039                     ___xxtofl@val:	
   442                           ; 2 bytes @ 0x19
   443                           
   444                           
   445                           ; 4 bytes @ 0x19
   446  0039                     	ds	2
   447  003B                     Lcd_Print_Num@rem:	
   448                           
   449                           ; 2 bytes @ 0x1B
   450  003B                     	ds	2
   451  003D                     ??___xxtofl:	
   452  003D                     Lcd_Print_Num@temp:	
   453                           ; 1 bytes @ 0x1D
   454                           
   455                           
   456                           ; 2 bytes @ 0x1D
   457  003D                     	ds	2
   458  003F                     Lcd_Print_Num@reverse:	
   459                           
   460                           ; 2 bytes @ 0x1F
   461  003F                     	ds	2
   462  0041                     ___xxtofl@sign:	
   463                           
   464                           ; 1 bytes @ 0x21
   465  0041                     	ds	1
   466  0042                     ___xxtofl@exp:	
   467                           
   468                           ; 1 bytes @ 0x22
   469  0042                     	ds	1
   470  0043                     ___xxtofl@arg:	
   471                           
   472                           ; 4 bytes @ 0x23
   473  0043                     	ds	4
   474  0047                     ?___flmul:	
   475  0047                     ___flmul@b:	
   476                           ; 4 bytes @ 0x27
   477                           
   478                           
   479                           ; 4 bytes @ 0x27
   480  0047                     	ds	4
   481  004B                     ___flmul@a:	
   482                           
   483                           ; 4 bytes @ 0x2B
   484  004B                     	ds	4
   485  004F                     ??___flmul:	
   486                           
   487                           ; 1 bytes @ 0x2F
   488  004F                     	ds	5
   489  0054                     ___flmul@sign:	
   490                           
   491                           ; 1 bytes @ 0x34
   492  0054                     	ds	1
   493  0055                     ___flmul@grs:	
   494                           
   495                           ; 4 bytes @ 0x35
   496  0055                     	ds	4
   497  0059                     ___flmul@aexp:	
   498                           
   499                           ; 1 bytes @ 0x39
   500  0059                     	ds	1
   501  005A                     ___flmul@bexp:	
   502                           
   503                           ; 1 bytes @ 0x3A
   504  005A                     	ds	1
   505  005B                     ___flmul@prod:	
   506                           
   507                           ; 4 bytes @ 0x3B
   508  005B                     	ds	4
   509  005F                     ___flmul@temp:	
   510                           
   511                           ; 2 bytes @ 0x3F
   512  005F                     	ds	2
   513  0061                     ?_Lcd_Print_Float:	
   514  0061                     Lcd_Print_Float@value:	
   515                           ; 1 bytes @ 0x41
   516                           
   517                           
   518                           ; 4 bytes @ 0x41
   519  0061                     	ds	4
   520  0065                     Lcd_Print_Float@decimal:	
   521                           
   522                           ; 4 bytes @ 0x45
   523  0065                     	ds	4
   524  0069                     Lcd_Print_Float@integer:	
   525                           
   526                           ; 4 bytes @ 0x49
   527  0069                     	ds	4
   528                           
   529                           	psect	maintext
   530  0146                     __pmaintext:	
   531 ;;
   532 ;;Main: autosize = 0, tempsize = 0, incstack = 0, save=0
   533 ;;
   534 ;; *************** function _main *****************
   535 ;; Defined at:
   536 ;;		line 98 in file "main.c"
   537 ;; Parameters:    Size  Location     Type
   538 ;;		None
   539 ;; Auto vars:     Size  Location     Type
   540 ;;  input           4    2[BANK1 ] float 
   541 ;;  adc             2    0[BANK1 ] int 
   542 ;; Return value:  Size  Location     Type
   543 ;;                  2   67[None  ] int 
   544 ;; Registers used:
   545 ;;		wreg, status,2, status,0, btemp+1, pclath, cstack
   546 ;; Tracked objects:
   547 ;;		On entry : B00/0
   548 ;;		On exit  : 0/0
   549 ;;		Unchanged: 0/0
   550 ;; Data sizes:     COMMON   BANK0   BANK1   BANK3   BANK2
   551 ;;      Params:         0       0       0       0       0
   552 ;;      Locals:         0       0       6       0       0
   553 ;;      Temps:          0       0       0       0       0
   554 ;;      Totals:         0       0       6       0       0
   555 ;;Total ram usage:        6 bytes
   556 ;; Hardware stack levels required when called:    3
   557 ;; This function calls:
   558 ;;		_ADC_Init
   559 ;;		_ADC_Read
   560 ;;		_Lcd_Clear
   561 ;;		_Lcd_Cmd
   562 ;;		_Lcd_Print_Float
   563 ;;		_Lcd_Start
   564 ;;		___flge
   565 ;;		___flmul
   566 ;;		___xxtofl
   567 ;; This function is called by:
   568 ;;		Startup code after reset
   569 ;; This function uses a non-reentrant model
   570 ;;
   571                           
   572                           
   573                           ;psect for function _main
   574  0146                     _main:	
   575  0146                     l1941:	
   576                           ;incstack = 0
   577                           ; Regs used in _main: [wreg+status,2+status,0+btemp+1+pclath+cstack]
   578                           
   579                           
   580                           ;main.c: 100:     TRISB = 0x00;
   581  0146  1683               	bsf	3,5	;RP0=1, select bank1
   582  0147  1303               	bcf	3,6	;RP1=0, select bank1
   583  0148  0186               	clrf	6	;volatile
   584                           
   585                           ;main.c: 101:     TRISC = 0x00;
   586  0149  0187               	clrf	7	;volatile
   587                           
   588                           ;main.c: 102:     TRISD = 0x00;
   589  014A  0188               	clrf	8	;volatile
   590  014B                     l1943:	
   591                           
   592                           ;main.c: 103:     RD0 = 1;
   593  014B  1283               	bcf	3,5	;RP0=0, select bank0
   594  014C  1303               	bcf	3,6	;RP1=0, select bank0
   595  014D  1408               	bsf	8,0	;volatile
   596  014E                     l1945:	
   597                           
   598                           ;main.c: 104:     Lcd_Start();
   599  014E  120A  158A  2527  120A  118A  	fcall	_Lcd_Start
   600  0153                     l1947:	
   601                           
   602                           ;main.c: 105:     ADC_Init();
   603  0153  120A  118A  2005  120A  118A  	fcall	_ADC_Init
   604  0158                     l1949:	
   605                           
   606                           ;main.c: 107:     {;main.c: 108:         Lcd_Clear();
   607  0158  120A  158A  2457  120A  118A  	fcall	_Lcd_Clear
   608  015D                     l1951:	
   609                           
   610                           ;main.c: 109:         Lcd_Cmd(0x80);
   611  015D  3080               	movlw	128
   612  015E  120A  158A  2464  120A  118A  	fcall	_Lcd_Cmd
   613  0163                     l1953:	
   614                           
   615                           ;main.c: 110:         int adc = ADC_Read(4);
   616  0163  3004               	movlw	4
   617  0164  120A  158A  24FC  120A  118A  	fcall	_ADC_Read
   618  0169  0871               	movf	?_ADC_Read+1,w
   619  016A  1683               	bsf	3,5	;RP0=1, select bank1
   620  016B  1303               	bcf	3,6	;RP1=0, select bank1
   621  016C  00A1               	movwf	(main@adc+1)^(0+128)
   622  016D  0870               	movf	?_ADC_Read,w
   623  016E  00A0               	movwf	main@adc^(0+128)
   624  016F                     l1955:	
   625                           
   626                           ;main.c: 111:         float input = (adc * (5.0f / 1024.0f));
   627  016F  303B               	movlw	59
   628  0170  1283               	bcf	3,5	;RP0=0, select bank0
   629  0171  1303               	bcf	3,6	;RP1=0, select bank0
   630  0172  00CA               	movwf	___flmul@b+3
   631  0173  30A0               	movlw	160
   632  0174  00C9               	movwf	___flmul@b+2
   633  0175  3000               	movlw	0
   634  0176  00C8               	movwf	___flmul@b+1
   635  0177  3000               	movlw	0
   636  0178  00C7               	movwf	___flmul@b
   637  0179  1683               	bsf	3,5	;RP0=1, select bank1
   638  017A  1303               	bcf	3,6	;RP1=0, select bank1
   639  017B  0820               	movf	main@adc^(0+128),w
   640  017C  1283               	bcf	3,5	;RP0=0, select bank0
   641  017D  1303               	bcf	3,6	;RP1=0, select bank0
   642  017E  00B9               	movwf	___xxtofl@val
   643  017F  1683               	bsf	3,5	;RP0=1, select bank1
   644  0180  1303               	bcf	3,6	;RP1=0, select bank1
   645  0181  0821               	movf	(main@adc+1)^(0+128),w
   646  0182  1283               	bcf	3,5	;RP0=0, select bank0
   647  0183  1303               	bcf	3,6	;RP1=0, select bank0
   648  0184  00BA               	movwf	___xxtofl@val+1
   649  0185  3000               	movlw	0
   650  0186  1BBA               	btfsc	___xxtofl@val+1,7
   651  0187  30FF               	movlw	255
   652  0188  00BB               	movwf	___xxtofl@val+2
   653  0189  00BC               	movwf	___xxtofl@val+3
   654  018A  3001               	movlw	1
   655  018B  120A  118A  208A  120A  118A  	fcall	___xxtofl
   656  0190  1283               	bcf	3,5	;RP0=0, select bank0
   657  0191  1303               	bcf	3,6	;RP1=0, select bank0
   658  0192  083C               	movf	?___xxtofl+3,w
   659  0193  00CE               	movwf	___flmul@a+3
   660  0194  083B               	movf	?___xxtofl+2,w
   661  0195  00CD               	movwf	___flmul@a+2
   662  0196  083A               	movf	?___xxtofl+1,w
   663  0197  00CC               	movwf	___flmul@a+1
   664  0198  0839               	movf	?___xxtofl,w
   665  0199  00CB               	movwf	___flmul@a
   666  019A  120A  118A  249B  120A  118A  	fcall	___flmul
   667  019F  1283               	bcf	3,5	;RP0=0, select bank0
   668  01A0  1303               	bcf	3,6	;RP1=0, select bank0
   669  01A1  084A               	movf	?___flmul+3,w
   670  01A2  1683               	bsf	3,5	;RP0=1, select bank1
   671  01A3  1303               	bcf	3,6	;RP1=0, select bank1
   672  01A4  00A5               	movwf	(main@input+3)^(0+128)
   673  01A5  1283               	bcf	3,5	;RP0=0, select bank0
   674  01A6  1303               	bcf	3,6	;RP1=0, select bank0
   675  01A7  0849               	movf	?___flmul+2,w
   676  01A8  1683               	bsf	3,5	;RP0=1, select bank1
   677  01A9  1303               	bcf	3,6	;RP1=0, select bank1
   678  01AA  00A4               	movwf	(main@input+2)^(0+128)
   679  01AB  1283               	bcf	3,5	;RP0=0, select bank0
   680  01AC  1303               	bcf	3,6	;RP1=0, select bank0
   681  01AD  0848               	movf	?___flmul+1,w
   682  01AE  1683               	bsf	3,5	;RP0=1, select bank1
   683  01AF  1303               	bcf	3,6	;RP1=0, select bank1
   684  01B0  00A3               	movwf	(main@input+1)^(0+128)
   685  01B1  1283               	bcf	3,5	;RP0=0, select bank0
   686  01B2  1303               	bcf	3,6	;RP1=0, select bank0
   687  01B3  0847               	movf	?___flmul,w
   688  01B4  1683               	bsf	3,5	;RP0=1, select bank1
   689  01B5  1303               	bcf	3,6	;RP1=0, select bank1
   690  01B6  00A2               	movwf	main@input^(0+128)
   691  01B7                     l1957:	
   692                           
   693                           ;main.c: 113:         if(input > 2 & input < 2.5)
   694  01B7  3040               	movlw	64
   695  01B8  00F3               	movwf	___flge@ff1+3
   696  01B9  3000               	movlw	0
   697  01BA  00F2               	movwf	___flge@ff1+2
   698  01BB  3000               	movlw	0
   699  01BC  00F1               	movwf	___flge@ff1+1
   700  01BD  3000               	movlw	0
   701  01BE  00F0               	movwf	___flge@ff1
   702  01BF  0825               	movf	(main@input+3)^(0+128),w
   703  01C0  00F7               	movwf	___flge@ff2+3
   704  01C1  0824               	movf	(main@input+2)^(0+128),w
   705  01C2  00F6               	movwf	___flge@ff2+2
   706  01C3  0823               	movf	(main@input+1)^(0+128),w
   707  01C4  00F5               	movwf	___flge@ff2+1
   708  01C5  0822               	movf	main@input^(0+128),w
   709  01C6  00F4               	movwf	___flge@ff2
   710  01C7  120A  158A  26A5  120A  118A  	fcall	___flge
   711  01CC  1803               	btfsc	3,0
   712  01CD  29CF               	goto	u2931
   713  01CE  29D0               	goto	u2930
   714  01CF                     u2931:	
   715  01CF  29EF               	goto	l69
   716  01D0                     u2930:	
   717  01D0                     l1959:	
   718  01D0  1683               	bsf	3,5	;RP0=1, select bank1
   719  01D1  1303               	bcf	3,6	;RP1=0, select bank1
   720  01D2  0825               	movf	(main@input+3)^(0+128),w
   721  01D3  00F3               	movwf	___flge@ff1+3
   722  01D4  0824               	movf	(main@input+2)^(0+128),w
   723  01D5  00F2               	movwf	___flge@ff1+2
   724  01D6  0823               	movf	(main@input+1)^(0+128),w
   725  01D7  00F1               	movwf	___flge@ff1+1
   726  01D8  0822               	movf	main@input^(0+128),w
   727  01D9  00F0               	movwf	___flge@ff1
   728  01DA  3040               	movlw	64
   729  01DB  00F7               	movwf	___flge@ff2+3
   730  01DC  3020               	movlw	32
   731  01DD  00F6               	movwf	___flge@ff2+2
   732  01DE  3000               	movlw	0
   733  01DF  00F5               	movwf	___flge@ff2+1
   734  01E0  3000               	movlw	0
   735  01E1  00F4               	movwf	___flge@ff2
   736  01E2  120A  158A  26A5  120A  118A  	fcall	___flge
   737  01E7  1803               	btfsc	3,0
   738  01E8  29EA               	goto	u2941
   739  01E9  29EB               	goto	u2940
   740  01EA                     u2941:	
   741  01EA  29EF               	goto	l69
   742  01EB                     u2940:	
   743  01EB                     l1961:	
   744                           
   745                           ;main.c: 114:             RD0 = 1;
   746  01EB  1283               	bcf	3,5	;RP0=0, select bank0
   747  01EC  1303               	bcf	3,6	;RP1=0, select bank0
   748  01ED  1408               	bsf	8,0	;volatile
   749  01EE  29F2               	goto	l1963
   750  01EF                     l69:	
   751                           ;main.c: 115:         else
   752                           
   753                           
   754                           ;main.c: 116:             RD0 = 0;
   755  01EF  1283               	bcf	3,5	;RP0=0, select bank0
   756  01F0  1303               	bcf	3,6	;RP1=0, select bank0
   757  01F1  1008               	bcf	8,0	;volatile
   758  01F2                     l1963:	
   759                           
   760                           ;main.c: 118:         Lcd_Print_Float(3.9f);
   761  01F2  3040               	movlw	64
   762  01F3  00E4               	movwf	Lcd_Print_Float@value+3
   763  01F4  3079               	movlw	121
   764  01F5  00E3               	movwf	Lcd_Print_Float@value+2
   765  01F6  3099               	movlw	153
   766  01F7  00E2               	movwf	Lcd_Print_Float@value+1
   767  01F8  309A               	movlw	154
   768  01F9  00E1               	movwf	Lcd_Print_Float@value
   769  01FA  120A  158A  2747  120A  118A  	fcall	_Lcd_Print_Float
   770  01FF  2958               	goto	l1949
   771  0200  120A  118A  2800   	ljmp	start
   772  0203                     __end_of_main:	
   773                           
   774                           	psect	text1
   775  0EA5                     __ptext1:	
   776 ;; *************** function ___flge *****************
   777 ;; Defined at:
   778 ;;		line 4 in file "G:\Softwares\XC8\pic\sources\c90\common\flge.c"
   779 ;; Parameters:    Size  Location     Type
   780 ;;  ff1             4    0[COMMON] int 
   781 ;;  ff2             4    4[COMMON] int 
   782 ;; Auto vars:     Size  Location     Type
   783 ;;		None
   784 ;; Return value:  Size  Location     Type
   785 ;;		None               void
   786 ;; Registers used:
   787 ;;		wreg, status,2, status,0
   788 ;; Tracked objects:
   789 ;;		On entry : 0/0
   790 ;;		On exit  : 0/0
   791 ;;		Unchanged: 0/0
   792 ;; Data sizes:     COMMON   BANK0   BANK1   BANK3   BANK2
   793 ;;      Params:         8       0       0       0       0
   794 ;;      Locals:         0       0       0       0       0
   795 ;;      Temps:          4       0       0       0       0
   796 ;;      Totals:        12       0       0       0       0
   797 ;;Total ram usage:       12 bytes
   798 ;; Hardware stack levels used:    1
   799 ;; This function calls:
   800 ;;		Nothing
   801 ;; This function is called by:
   802 ;;		_main
   803 ;; This function uses a non-reentrant model
   804 ;;
   805                           
   806                           
   807                           ;psect for function ___flge
   808  0EA5                     ___flge:	
   809  0EA5                     l1913:	
   810                           ;incstack = 0
   811                           ; Regs used in ___flge: [wreg+status,2+status,0]
   812                           
   813  0EA5  3000               	movlw	0
   814  0EA6  0570               	andwf	___flge@ff1,w
   815  0EA7  00F8               	movwf	??___flge
   816  0EA8  3000               	movlw	0
   817  0EA9  0571               	andwf	___flge@ff1+1,w
   818  0EAA  00F9               	movwf	??___flge+1
   819  0EAB  3080               	movlw	128
   820  0EAC  0572               	andwf	___flge@ff1+2,w
   821  0EAD  00FA               	movwf	??___flge+2
   822  0EAE  307F               	movlw	127
   823  0EAF  0573               	andwf	___flge@ff1+3,w
   824  0EB0  00FB               	movwf	??___flge+3
   825  0EB1  087B               	movf	??___flge+3,w
   826  0EB2  047A               	iorwf	??___flge+2,w
   827  0EB3  0479               	iorwf	??___flge+1,w
   828  0EB4  0478               	iorwf	??___flge,w
   829  0EB5  1D03               	skipz
   830  0EB6  2EB8               	goto	u2851
   831  0EB7  2EB9               	goto	u2850
   832  0EB8                     u2851:	
   833  0EB8  2EC1               	goto	l333
   834  0EB9                     u2850:	
   835  0EB9                     l1915:	
   836  0EB9  3000               	movlw	0
   837  0EBA  00F3               	movwf	___flge@ff1+3
   838  0EBB  3000               	movlw	0
   839  0EBC  00F2               	movwf	___flge@ff1+2
   840  0EBD  3000               	movlw	0
   841  0EBE  00F1               	movwf	___flge@ff1+1
   842  0EBF  3000               	movlw	0
   843  0EC0  00F0               	movwf	___flge@ff1
   844  0EC1                     l333:	
   845  0EC1  3000               	movlw	0
   846  0EC2  0574               	andwf	___flge@ff2,w
   847  0EC3  00F8               	movwf	??___flge
   848  0EC4  3000               	movlw	0
   849  0EC5  0575               	andwf	___flge@ff2+1,w
   850  0EC6  00F9               	movwf	??___flge+1
   851  0EC7  3080               	movlw	128
   852  0EC8  0576               	andwf	___flge@ff2+2,w
   853  0EC9  00FA               	movwf	??___flge+2
   854  0ECA  307F               	movlw	127
   855  0ECB  0577               	andwf	___flge@ff2+3,w
   856  0ECC  00FB               	movwf	??___flge+3
   857  0ECD  087B               	movf	??___flge+3,w
   858  0ECE  047A               	iorwf	??___flge+2,w
   859  0ECF  0479               	iorwf	??___flge+1,w
   860  0ED0  0478               	iorwf	??___flge,w
   861  0ED1  1D03               	skipz
   862  0ED2  2ED4               	goto	u2861
   863  0ED3  2ED5               	goto	u2860
   864  0ED4                     u2861:	
   865  0ED4  2EDD               	goto	l1919
   866  0ED5                     u2860:	
   867  0ED5                     l1917:	
   868  0ED5  3000               	movlw	0
   869  0ED6  00F7               	movwf	___flge@ff2+3
   870  0ED7  3000               	movlw	0
   871  0ED8  00F6               	movwf	___flge@ff2+2
   872  0ED9  3000               	movlw	0
   873  0EDA  00F5               	movwf	___flge@ff2+1
   874  0EDB  3000               	movlw	0
   875  0EDC  00F4               	movwf	___flge@ff2
   876  0EDD                     l1919:	
   877  0EDD  1FF3               	btfss	___flge@ff1+3,7
   878  0EDE  2EE0               	goto	u2871
   879  0EDF  2EE1               	goto	u2870
   880  0EE0                     u2871:	
   881  0EE0  2F05               	goto	l1923
   882  0EE1                     u2870:	
   883  0EE1                     l1921:	
   884  0EE1  3000               	movlw	0
   885  0EE2  00F8               	movwf	??___flge
   886  0EE3  3000               	movlw	0
   887  0EE4  00F9               	movwf	??___flge+1
   888  0EE5  3000               	movlw	0
   889  0EE6  00FA               	movwf	??___flge+2
   890  0EE7  3080               	movlw	128
   891  0EE8  00FB               	movwf	??___flge+3
   892  0EE9  0870               	movf	___flge@ff1,w
   893  0EEA  02F8               	subwf	??___flge,f
   894  0EEB  0871               	movf	___flge@ff1+1,w
   895  0EEC  1C03               	skipc
   896  0EED  0F71               	incfsz	___flge@ff1+1,w
   897  0EEE  2EF0               	goto	u2881
   898  0EEF  2EF1               	goto	u2882
   899  0EF0                     u2881:	
   900  0EF0  02F9               	subwf	??___flge+1,f
   901  0EF1                     u2882:	
   902  0EF1  0872               	movf	___flge@ff1+2,w
   903  0EF2  1C03               	skipc
   904  0EF3  0F72               	incfsz	___flge@ff1+2,w
   905  0EF4  2EF6               	goto	u2883
   906  0EF5  2EF7               	goto	u2884
   907  0EF6                     u2883:	
   908  0EF6  02FA               	subwf	??___flge+2,f
   909  0EF7                     u2884:	
   910  0EF7  0873               	movf	___flge@ff1+3,w
   911  0EF8  1C03               	skipc
   912  0EF9  0F73               	incfsz	___flge@ff1+3,w
   913  0EFA  2EFC               	goto	u2885
   914  0EFB  2EFD               	goto	u2886
   915  0EFC                     u2885:	
   916  0EFC  02FB               	subwf	??___flge+3,f
   917  0EFD                     u2886:	
   918  0EFD  087B               	movf	??___flge+3,w
   919  0EFE  00F3               	movwf	___flge@ff1+3
   920  0EFF  087A               	movf	??___flge+2,w
   921  0F00  00F2               	movwf	___flge@ff1+2
   922  0F01  0879               	movf	??___flge+1,w
   923  0F02  00F1               	movwf	___flge@ff1+1
   924  0F03  0878               	movf	??___flge,w
   925  0F04  00F0               	movwf	___flge@ff1
   926  0F05                     l1923:	
   927  0F05  1FF7               	btfss	___flge@ff2+3,7
   928  0F06  2F08               	goto	u2891
   929  0F07  2F09               	goto	u2890
   930  0F08                     u2891:	
   931  0F08  2F2D               	goto	l336
   932  0F09                     u2890:	
   933  0F09                     l1925:	
   934  0F09  3000               	movlw	0
   935  0F0A  00F8               	movwf	??___flge
   936  0F0B  3000               	movlw	0
   937  0F0C  00F9               	movwf	??___flge+1
   938  0F0D  3000               	movlw	0
   939  0F0E  00FA               	movwf	??___flge+2
   940  0F0F  3080               	movlw	128
   941  0F10  00FB               	movwf	??___flge+3
   942  0F11  0874               	movf	___flge@ff2,w
   943  0F12  02F8               	subwf	??___flge,f
   944  0F13  0875               	movf	___flge@ff2+1,w
   945  0F14  1C03               	skipc
   946  0F15  0F75               	incfsz	___flge@ff2+1,w
   947  0F16  2F18               	goto	u2901
   948  0F17  2F19               	goto	u2902
   949  0F18                     u2901:	
   950  0F18  02F9               	subwf	??___flge+1,f
   951  0F19                     u2902:	
   952  0F19  0876               	movf	___flge@ff2+2,w
   953  0F1A  1C03               	skipc
   954  0F1B  0F76               	incfsz	___flge@ff2+2,w
   955  0F1C  2F1E               	goto	u2903
   956  0F1D  2F1F               	goto	u2904
   957  0F1E                     u2903:	
   958  0F1E  02FA               	subwf	??___flge+2,f
   959  0F1F                     u2904:	
   960  0F1F  0877               	movf	___flge@ff2+3,w
   961  0F20  1C03               	skipc
   962  0F21  0F77               	incfsz	___flge@ff2+3,w
   963  0F22  2F24               	goto	u2905
   964  0F23  2F25               	goto	u2906
   965  0F24                     u2905:	
   966  0F24  02FB               	subwf	??___flge+3,f
   967  0F25                     u2906:	
   968  0F25  087B               	movf	??___flge+3,w
   969  0F26  00F7               	movwf	___flge@ff2+3
   970  0F27  087A               	movf	??___flge+2,w
   971  0F28  00F6               	movwf	___flge@ff2+2
   972  0F29  0879               	movf	??___flge+1,w
   973  0F2A  00F5               	movwf	___flge@ff2+1
   974  0F2B  0878               	movf	??___flge,w
   975  0F2C  00F4               	movwf	___flge@ff2
   976  0F2D                     l336:	
   977  0F2D  3080               	movlw	128
   978  0F2E  06F3               	xorwf	___flge@ff1+3,f
   979  0F2F  3080               	movlw	128
   980  0F30  06F7               	xorwf	___flge@ff2+3,f
   981  0F31  0877               	movf	___flge@ff2+3,w
   982  0F32  0273               	subwf	___flge@ff1+3,w
   983  0F33  1D03               	skipz
   984  0F34  2F3F               	goto	u2915
   985  0F35  0876               	movf	___flge@ff2+2,w
   986  0F36  0272               	subwf	___flge@ff1+2,w
   987  0F37  1D03               	skipz
   988  0F38  2F3F               	goto	u2915
   989  0F39  0875               	movf	___flge@ff2+1,w
   990  0F3A  0271               	subwf	___flge@ff1+1,w
   991  0F3B  1D03               	skipz
   992  0F3C  2F3F               	goto	u2915
   993  0F3D  0874               	movf	___flge@ff2,w
   994  0F3E  0270               	subwf	___flge@ff1,w
   995  0F3F                     u2915:	
   996  0F3F  1803               	skipnc
   997  0F40  2F42               	goto	u2911
   998  0F41  2F43               	goto	u2910
   999  0F42                     u2911:	
  1000  0F42  2F45               	goto	l1929
  1001  0F43                     u2910:	
  1002  0F43                     l1927:	
  1003  0F43  1003               	clrc
  1004  0F44  2F46               	goto	l337
  1005  0F45                     l1929:	
  1006  0F45  1403               	setc
  1007  0F46                     l337:	
  1008  0F46  0008               	return
  1009  0F47                     __end_of___flge:	
  1010                           
  1011                           	psect	text2
  1012  0D27                     __ptext2:	
  1013 ;; *************** function _Lcd_Start *****************
  1014 ;; Defined at:
  1015 ;;		line 47 in file "main.c"
  1016 ;; Parameters:    Size  Location     Type
  1017 ;;		None
  1018 ;; Auto vars:     Size  Location     Type
  1019 ;;		None
  1020 ;; Return value:  Size  Location     Type
  1021 ;;                  1    wreg      void 
  1022 ;; Registers used:
  1023 ;;		wreg, status,2, status,0, pclath, cstack
  1024 ;; Tracked objects:
  1025 ;;		On entry : 0/0
  1026 ;;		On exit  : 0/0
  1027 ;;		Unchanged: 0/0
  1028 ;; Data sizes:     COMMON   BANK0   BANK1   BANK3   BANK2
  1029 ;;      Params:         0       0       0       0       0
  1030 ;;      Locals:         0       0       0       0       0
  1031 ;;      Temps:          0       0       0       0       0
  1032 ;;      Totals:         0       0       0       0       0
  1033 ;;Total ram usage:        0 bytes
  1034 ;; Hardware stack levels used:    1
  1035 ;; Hardware stack levels required when called:    1
  1036 ;; This function calls:
  1037 ;;		_Lcd_Cmd
  1038 ;; This function is called by:
  1039 ;;		_main
  1040 ;; This function uses a non-reentrant model
  1041 ;;
  1042                           
  1043                           
  1044                           ;psect for function _Lcd_Start
  1045  0D27                     _Lcd_Start:	
  1046  0D27                     l1903:	
  1047                           ;incstack = 0
  1048                           ; Regs used in _Lcd_Start: [wreg+status,2+status,0+pclath+cstack]
  1049                           
  1050                           
  1051                           ;main.c: 49:   Lcd_Cmd(0x02);
  1052  0D27  3002               	movlw	2
  1053  0D28  120A  158A  2464  120A  158A  	fcall	_Lcd_Cmd
  1054                           
  1055                           ;main.c: 50:   Lcd_Cmd(0x38);
  1056  0D2D  3038               	movlw	56
  1057  0D2E  120A  158A  2464  120A  158A  	fcall	_Lcd_Cmd
  1058                           
  1059                           ;main.c: 51:   Lcd_Cmd(0x08);
  1060  0D33  3008               	movlw	8
  1061  0D34  120A  158A  2464  120A  158A  	fcall	_Lcd_Cmd
  1062                           
  1063                           ;main.c: 52:   Lcd_Cmd(0x00);
  1064  0D39  3000               	movlw	0
  1065  0D3A  120A  158A  2464  120A  158A  	fcall	_Lcd_Cmd
  1066                           
  1067                           ;main.c: 53:   Lcd_Cmd(0x0C);
  1068  0D3F  300C               	movlw	12
  1069  0D40  120A  158A  2464  120A  158A  	fcall	_Lcd_Cmd
  1070                           
  1071                           ;main.c: 54:   Lcd_Cmd(0x00);
  1072  0D45  3000               	movlw	0
  1073  0D46  120A  158A  2464  120A  158A  	fcall	_Lcd_Cmd
  1074                           
  1075                           ;main.c: 55:   Lcd_Cmd(0x06);
  1076  0D4B  3006               	movlw	6
  1077  0D4C  120A  158A  2464  120A  158A  	fcall	_Lcd_Cmd
  1078  0D51                     l44:	
  1079  0D51  0008               	return
  1080  0D52                     __end_of_Lcd_Start:	
  1081                           
  1082                           	psect	text3
  1083  0F47                     __ptext3:	
  1084 ;; *************** function _Lcd_Print_Float *****************
  1085 ;; Defined at:
  1086 ;;		line 89 in file "main.c"
  1087 ;; Parameters:    Size  Location     Type
  1088 ;;  value           4   65[BANK0 ] void 
  1089 ;; Auto vars:     Size  Location     Type
  1090 ;;  integer         4   73[BANK0 ] void 
  1091 ;;  decimal         4   69[BANK0 ] void 
  1092 ;; Return value:  Size  Location     Type
  1093 ;;                  1    wreg      void 
  1094 ;; Registers used:
  1095 ;;		wreg, status,2, status,0, btemp+1, pclath, cstack
  1096 ;; Tracked objects:
  1097 ;;		On entry : 0/0
  1098 ;;		On exit  : 0/0
  1099 ;;		Unchanged: 0/0
  1100 ;; Data sizes:     COMMON   BANK0   BANK1   BANK3   BANK2
  1101 ;;      Params:         0       4       0       0       0
  1102 ;;      Locals:         0       8       0       0       0
  1103 ;;      Temps:          0       0       0       0       0
  1104 ;;      Totals:         0      12       0       0       0
  1105 ;;Total ram usage:       12 bytes
  1106 ;; Hardware stack levels used:    1
  1107 ;; Hardware stack levels required when called:    2
  1108 ;; This function calls:
  1109 ;;		_Lcd_Print_Char
  1110 ;;		_Lcd_Print_Num
  1111 ;;		___flmul
  1112 ;;		___flsub
  1113 ;;		___fltol
  1114 ;;		___xxtofl
  1115 ;; This function is called by:
  1116 ;;		_main
  1117 ;; This function uses a non-reentrant model
  1118 ;;
  1119                           
  1120                           
  1121                           ;psect for function _Lcd_Print_Float
  1122  0F47                     _Lcd_Print_Float:	
  1123  0F47                     l1905:	
  1124                           ;incstack = 0
  1125                           ; Regs used in _Lcd_Print_Float: [wreg+status,2+status,0+btemp+1+pclath+cstack]
  1126                           
  1127                           
  1128                           ;main.c: 90:     double integer = (int)value;
  1129  0F47  1283               	bcf	3,5	;RP0=0, select bank0
  1130  0F48  1303               	bcf	3,6	;RP1=0, select bank0
  1131  0F49  0864               	movf	Lcd_Print_Float@value+3,w
  1132  0F4A  00B3               	movwf	___fltol@f1+3
  1133  0F4B  0863               	movf	Lcd_Print_Float@value+2,w
  1134  0F4C  00B2               	movwf	___fltol@f1+2
  1135  0F4D  0862               	movf	Lcd_Print_Float@value+1,w
  1136  0F4E  00B1               	movwf	___fltol@f1+1
  1137  0F4F  0861               	movf	Lcd_Print_Float@value,w
  1138  0F50  00B0               	movwf	___fltol@f1
  1139  0F51  120A  118A  200E  120A  158A  	fcall	___fltol
  1140  0F56  1283               	bcf	3,5	;RP0=0, select bank0
  1141  0F57  1303               	bcf	3,6	;RP1=0, select bank0
  1142  0F58  0830               	movf	?___fltol,w
  1143  0F59  00B9               	movwf	___xxtofl@val
  1144  0F5A  0831               	movf	?___fltol+1,w
  1145  0F5B  00BA               	movwf	___xxtofl@val+1
  1146  0F5C  3000               	movlw	0
  1147  0F5D  1BBA               	btfsc	___xxtofl@val+1,7
  1148  0F5E  30FF               	movlw	255
  1149  0F5F  00BB               	movwf	___xxtofl@val+2
  1150  0F60  00BC               	movwf	___xxtofl@val+3
  1151  0F61  3001               	movlw	1
  1152  0F62  120A  118A  208A  120A  158A  	fcall	___xxtofl
  1153  0F67  1283               	bcf	3,5	;RP0=0, select bank0
  1154  0F68  1303               	bcf	3,6	;RP1=0, select bank0
  1155  0F69  083C               	movf	?___xxtofl+3,w
  1156  0F6A  00EC               	movwf	Lcd_Print_Float@integer+3
  1157  0F6B  083B               	movf	?___xxtofl+2,w
  1158  0F6C  00EB               	movwf	Lcd_Print_Float@integer+2
  1159  0F6D  083A               	movf	?___xxtofl+1,w
  1160  0F6E  00EA               	movwf	Lcd_Print_Float@integer+1
  1161  0F6F  0839               	movf	?___xxtofl,w
  1162  0F70  00E9               	movwf	Lcd_Print_Float@integer
  1163  0F71                     l1907:	
  1164                           
  1165                           ;main.c: 91:     double decimal = (int)((value - integer) * 100);
  1166  0F71  0864               	movf	Lcd_Print_Float@value+3,w
  1167  0F72  00AF               	movwf	___flsub@b+3
  1168  0F73  0863               	movf	Lcd_Print_Float@value+2,w
  1169  0F74  00AE               	movwf	___flsub@b+2
  1170  0F75  0862               	movf	Lcd_Print_Float@value+1,w
  1171  0F76  00AD               	movwf	___flsub@b+1
  1172  0F77  0861               	movf	Lcd_Print_Float@value,w
  1173  0F78  00AC               	movwf	___flsub@b
  1174  0F79  086C               	movf	Lcd_Print_Float@integer+3,w
  1175  0F7A  00AB               	movwf	___flsub@a+3
  1176  0F7B  086B               	movf	Lcd_Print_Float@integer+2,w
  1177  0F7C  00AA               	movwf	___flsub@a+2
  1178  0F7D  086A               	movf	Lcd_Print_Float@integer+1,w
  1179  0F7E  00A9               	movwf	___flsub@a+1
  1180  0F7F  0869               	movf	Lcd_Print_Float@integer,w
  1181  0F80  00A8               	movwf	___flsub@a
  1182  0F81  120A  158A  248C  120A  158A  	fcall	___flsub
  1183  0F86  1283               	bcf	3,5	;RP0=0, select bank0
  1184  0F87  1303               	bcf	3,6	;RP1=0, select bank0
  1185  0F88  082B               	movf	?___flsub+3,w
  1186  0F89  00CE               	movwf	___flmul@a+3
  1187  0F8A  082A               	movf	?___flsub+2,w
  1188  0F8B  00CD               	movwf	___flmul@a+2
  1189  0F8C  0829               	movf	?___flsub+1,w
  1190  0F8D  00CC               	movwf	___flmul@a+1
  1191  0F8E  0828               	movf	?___flsub,w
  1192  0F8F  00CB               	movwf	___flmul@a
  1193  0F90  3042               	movlw	66
  1194  0F91  00CA               	movwf	___flmul@b+3
  1195  0F92  30C8               	movlw	200
  1196  0F93  00C9               	movwf	___flmul@b+2
  1197  0F94  3000               	movlw	0
  1198  0F95  00C8               	movwf	___flmul@b+1
  1199  0F96  3000               	movlw	0
  1200  0F97  00C7               	movwf	___flmul@b
  1201  0F98  120A  118A  249B  120A  158A  	fcall	___flmul
  1202  0F9D  1283               	bcf	3,5	;RP0=0, select bank0
  1203  0F9E  1303               	bcf	3,6	;RP1=0, select bank0
  1204  0F9F  084A               	movf	?___flmul+3,w
  1205  0FA0  00B3               	movwf	___fltol@f1+3
  1206  0FA1  0849               	movf	?___flmul+2,w
  1207  0FA2  00B2               	movwf	___fltol@f1+2
  1208  0FA3  0848               	movf	?___flmul+1,w
  1209  0FA4  00B1               	movwf	___fltol@f1+1
  1210  0FA5  0847               	movf	?___flmul,w
  1211  0FA6  00B0               	movwf	___fltol@f1
  1212  0FA7  120A  118A  200E  120A  158A  	fcall	___fltol
  1213  0FAC  1283               	bcf	3,5	;RP0=0, select bank0
  1214  0FAD  1303               	bcf	3,6	;RP1=0, select bank0
  1215  0FAE  0830               	movf	?___fltol,w
  1216  0FAF  00B9               	movwf	___xxtofl@val
  1217  0FB0  0831               	movf	?___fltol+1,w
  1218  0FB1  00BA               	movwf	___xxtofl@val+1
  1219  0FB2  3000               	movlw	0
  1220  0FB3  1BBA               	btfsc	___xxtofl@val+1,7
  1221  0FB4  30FF               	movlw	255
  1222  0FB5  00BB               	movwf	___xxtofl@val+2
  1223  0FB6  00BC               	movwf	___xxtofl@val+3
  1224  0FB7  3001               	movlw	1
  1225  0FB8  120A  118A  208A  120A  158A  	fcall	___xxtofl
  1226  0FBD  1283               	bcf	3,5	;RP0=0, select bank0
  1227  0FBE  1303               	bcf	3,6	;RP1=0, select bank0
  1228  0FBF  083C               	movf	?___xxtofl+3,w
  1229  0FC0  00E8               	movwf	Lcd_Print_Float@decimal+3
  1230  0FC1  083B               	movf	?___xxtofl+2,w
  1231  0FC2  00E7               	movwf	Lcd_Print_Float@decimal+2
  1232  0FC3  083A               	movf	?___xxtofl+1,w
  1233  0FC4  00E6               	movwf	Lcd_Print_Float@decimal+1
  1234  0FC5  0839               	movf	?___xxtofl,w
  1235  0FC6  00E5               	movwf	Lcd_Print_Float@decimal
  1236  0FC7                     l1909:	
  1237                           
  1238                           ;main.c: 92:     Lcd_Print_Num(integer);
  1239  0FC7  086C               	movf	Lcd_Print_Float@integer+3,w
  1240  0FC8  00B3               	movwf	___fltol@f1+3
  1241  0FC9  086B               	movf	Lcd_Print_Float@integer+2,w
  1242  0FCA  00B2               	movwf	___fltol@f1+2
  1243  0FCB  086A               	movf	Lcd_Print_Float@integer+1,w
  1244  0FCC  00B1               	movwf	___fltol@f1+1
  1245  0FCD  0869               	movf	Lcd_Print_Float@integer,w
  1246  0FCE  00B0               	movwf	___fltol@f1
  1247  0FCF  120A  118A  200E  120A  158A  	fcall	___fltol
  1248  0FD4  1283               	bcf	3,5	;RP0=0, select bank0
  1249  0FD5  1303               	bcf	3,6	;RP1=0, select bank0
  1250  0FD6  0831               	movf	?___fltol+1,w
  1251  0FD7  00BA               	movwf	Lcd_Print_Num@num+1
  1252  0FD8  0830               	movf	?___fltol,w
  1253  0FD9  00B9               	movwf	Lcd_Print_Num@num
  1254  0FDA  120A  158A  2612  120A  158A  	fcall	_Lcd_Print_Num
  1255                           
  1256                           ;main.c: 93:     Lcd_Print_Char('.');
  1257  0FDF  302E               	movlw	46
  1258  0FE0  120A  158A  2478  120A  158A  	fcall	_Lcd_Print_Char
  1259  0FE5                     l1911:	
  1260                           
  1261                           ;main.c: 94:     Lcd_Print_Num(decimal);
  1262  0FE5  1283               	bcf	3,5	;RP0=0, select bank0
  1263  0FE6  1303               	bcf	3,6	;RP1=0, select bank0
  1264  0FE7  0868               	movf	Lcd_Print_Float@decimal+3,w
  1265  0FE8  00B3               	movwf	___fltol@f1+3
  1266  0FE9  0867               	movf	Lcd_Print_Float@decimal+2,w
  1267  0FEA  00B2               	movwf	___fltol@f1+2
  1268  0FEB  0866               	movf	Lcd_Print_Float@decimal+1,w
  1269  0FEC  00B1               	movwf	___fltol@f1+1
  1270  0FED  0865               	movf	Lcd_Print_Float@decimal,w
  1271  0FEE  00B0               	movwf	___fltol@f1
  1272  0FEF  120A  118A  200E  120A  158A  	fcall	___fltol
  1273  0FF4  1283               	bcf	3,5	;RP0=0, select bank0
  1274  0FF5  1303               	bcf	3,6	;RP1=0, select bank0
  1275  0FF6  0831               	movf	?___fltol+1,w
  1276  0FF7  00BA               	movwf	Lcd_Print_Num@num+1
  1277  0FF8  0830               	movf	?___fltol,w
  1278  0FF9  00B9               	movwf	Lcd_Print_Num@num
  1279  0FFA  120A  158A  2612  120A  158A  	fcall	_Lcd_Print_Num
  1280  0FFF                     l63:	
  1281  0FFF  0008               	return
  1282  1000                     __end_of_Lcd_Print_Float:	
  1283                           
  1284                           	psect	text4
  1285  008A                     __ptext4:	
  1286 ;; *************** function ___xxtofl *****************
  1287 ;; Defined at:
  1288 ;;		line 10 in file "G:\Softwares\XC8\pic\sources\c90\common\xxtofl.c"
  1289 ;; Parameters:    Size  Location     Type
  1290 ;;  sign            1    wreg     unsigned char 
  1291 ;;  val             4   25[BANK0 ] long 
  1292 ;; Auto vars:     Size  Location     Type
  1293 ;;  sign            1   33[BANK0 ] unsigned char 
  1294 ;;  arg             4   35[BANK0 ] unsigned long 
  1295 ;;  exp             1   34[BANK0 ] unsigned char 
  1296 ;; Return value:  Size  Location     Type
  1297 ;;                  4   25[BANK0 ] unsigned char 
  1298 ;; Registers used:
  1299 ;;		wreg, status,2, status,0
  1300 ;; Tracked objects:
  1301 ;;		On entry : 0/0
  1302 ;;		On exit  : 0/0
  1303 ;;		Unchanged: 0/0
  1304 ;; Data sizes:     COMMON   BANK0   BANK1   BANK3   BANK2
  1305 ;;      Params:         0       4       0       0       0
  1306 ;;      Locals:         0       6       0       0       0
  1307 ;;      Temps:          0       4       0       0       0
  1308 ;;      Totals:         0      14       0       0       0
  1309 ;;Total ram usage:       14 bytes
  1310 ;; Hardware stack levels used:    1
  1311 ;; This function calls:
  1312 ;;		Nothing
  1313 ;; This function is called by:
  1314 ;;		_Lcd_Print_Float
  1315 ;;		_main
  1316 ;; This function uses a non-reentrant model
  1317 ;;
  1318                           
  1319                           
  1320                           ;psect for function ___xxtofl
  1321  008A                     ___xxtofl:	
  1322                           
  1323                           ;incstack = 0
  1324                           ; Regs used in ___xxtofl: [wreg+status,2+status,0]
  1325                           ;___xxtofl@sign stored from wreg
  1326  008A  1283               	bcf	3,5	;RP0=0, select bank0
  1327  008B  1303               	bcf	3,6	;RP1=0, select bank0
  1328  008C  00C1               	movwf	___xxtofl@sign
  1329  008D                     l1845:	
  1330  008D  0841               	movf	___xxtofl@sign,w
  1331  008E  1903               	btfsc	3,2
  1332  008F  2891               	goto	u2691
  1333  0090  2892               	goto	u2690
  1334  0091                     u2691:	
  1335  0091  28A6               	goto	l1851
  1336  0092                     u2690:	
  1337  0092                     l1847:	
  1338  0092  1FBC               	btfss	___xxtofl@val+3,7
  1339  0093  2895               	goto	u2701
  1340  0094  2896               	goto	u2700
  1341  0095                     u2701:	
  1342  0095  28A6               	goto	l1851
  1343  0096                     u2700:	
  1344  0096                     l1849:	
  1345  0096  0939               	comf	___xxtofl@val,w
  1346  0097  00C3               	movwf	___xxtofl@arg
  1347  0098  093A               	comf	___xxtofl@val+1,w
  1348  0099  00C4               	movwf	___xxtofl@arg+1
  1349  009A  093B               	comf	___xxtofl@val+2,w
  1350  009B  00C5               	movwf	___xxtofl@arg+2
  1351  009C  093C               	comf	___xxtofl@val+3,w
  1352  009D  00C6               	movwf	___xxtofl@arg+3
  1353  009E  0AC3               	incf	___xxtofl@arg,f
  1354  009F  1903               	skipnz
  1355  00A0  0AC4               	incf	___xxtofl@arg+1,f
  1356  00A1  1903               	skipnz
  1357  00A2  0AC5               	incf	___xxtofl@arg+2,f
  1358  00A3  1903               	skipnz
  1359  00A4  0AC6               	incf	___xxtofl@arg+3,f
  1360  00A5  28AE               	goto	l586
  1361  00A6                     l1851:	
  1362  00A6  083C               	movf	___xxtofl@val+3,w
  1363  00A7  00C6               	movwf	___xxtofl@arg+3
  1364  00A8  083B               	movf	___xxtofl@val+2,w
  1365  00A9  00C5               	movwf	___xxtofl@arg+2
  1366  00AA  083A               	movf	___xxtofl@val+1,w
  1367  00AB  00C4               	movwf	___xxtofl@arg+1
  1368  00AC  0839               	movf	___xxtofl@val,w
  1369  00AD  00C3               	movwf	___xxtofl@arg
  1370  00AE                     l586:	
  1371  00AE  083C               	movf	___xxtofl@val+3,w
  1372  00AF  043B               	iorwf	___xxtofl@val+2,w
  1373  00B0  043A               	iorwf	___xxtofl@val+1,w
  1374  00B1  0439               	iorwf	___xxtofl@val,w
  1375  00B2  1D03               	skipz
  1376  00B3  28B5               	goto	u2711
  1377  00B4  28B6               	goto	u2710
  1378  00B5                     u2711:	
  1379  00B5  28BF               	goto	l1857
  1380  00B6                     u2710:	
  1381  00B6                     l1853:	
  1382  00B6  3000               	movlw	0
  1383  00B7  00BC               	movwf	?___xxtofl+3
  1384  00B8  3000               	movlw	0
  1385  00B9  00BB               	movwf	?___xxtofl+2
  1386  00BA  3000               	movlw	0
  1387  00BB  00BA               	movwf	?___xxtofl+1
  1388  00BC  3000               	movlw	0
  1389  00BD  00B9               	movwf	?___xxtofl
  1390  00BE  2945               	goto	l588
  1391  00BF                     l1857:	
  1392  00BF  3096               	movlw	150
  1393  00C0  00BD               	movwf	??___xxtofl
  1394  00C1  083D               	movf	??___xxtofl,w
  1395  00C2  00C2               	movwf	___xxtofl@exp
  1396  00C3  28D1               	goto	l1861
  1397  00C4                     l1859:	
  1398  00C4  3001               	movlw	1
  1399  00C5  00BD               	movwf	??___xxtofl
  1400  00C6  083D               	movf	??___xxtofl,w
  1401  00C7  07C2               	addwf	___xxtofl@exp,f
  1402  00C8  3001               	movlw	1
  1403  00C9                     u2725:	
  1404  00C9  1003               	clrc
  1405  00CA  0CC6               	rrf	___xxtofl@arg+3,f
  1406  00CB  0CC5               	rrf	___xxtofl@arg+2,f
  1407  00CC  0CC4               	rrf	___xxtofl@arg+1,f
  1408  00CD  0CC3               	rrf	___xxtofl@arg,f
  1409  00CE  3EFF               	addlw	-1
  1410  00CF  1D03               	skipz
  1411  00D0  28C9               	goto	u2725
  1412  00D1                     l1861:	
  1413  00D1  30FE               	movlw	254
  1414  00D2  0546               	andwf	___xxtofl@arg+3,w
  1415  00D3  1D03               	btfss	3,2
  1416  00D4  28D6               	goto	u2731
  1417  00D5  28D7               	goto	u2730
  1418  00D6                     u2731:	
  1419  00D6  28C4               	goto	l1859
  1420  00D7                     u2730:	
  1421  00D7  28F3               	goto	l592
  1422  00D8                     l1863:	
  1423  00D8  3001               	movlw	1
  1424  00D9  00BD               	movwf	??___xxtofl
  1425  00DA  083D               	movf	??___xxtofl,w
  1426  00DB  07C2               	addwf	___xxtofl@exp,f
  1427  00DC                     l1865:	
  1428  00DC  3001               	movlw	1
  1429  00DD  07C3               	addwf	___xxtofl@arg,f
  1430  00DE  3000               	movlw	0
  1431  00DF  1803               	skipnc
  1432  00E0  3001               	movlw	1
  1433  00E1  07C4               	addwf	___xxtofl@arg+1,f
  1434  00E2  3000               	movlw	0
  1435  00E3  1803               	skipnc
  1436  00E4  3001               	movlw	1
  1437  00E5  07C5               	addwf	___xxtofl@arg+2,f
  1438  00E6  3000               	movlw	0
  1439  00E7  1803               	skipnc
  1440  00E8  3001               	movlw	1
  1441  00E9  07C6               	addwf	___xxtofl@arg+3,f
  1442  00EA                     l1867:	
  1443  00EA  3001               	movlw	1
  1444  00EB                     u2745:	
  1445  00EB  1003               	clrc
  1446  00EC  0CC6               	rrf	___xxtofl@arg+3,f
  1447  00ED  0CC5               	rrf	___xxtofl@arg+2,f
  1448  00EE  0CC4               	rrf	___xxtofl@arg+1,f
  1449  00EF  0CC3               	rrf	___xxtofl@arg,f
  1450  00F0  3EFF               	addlw	-1
  1451  00F1  1D03               	skipz
  1452  00F2  28EB               	goto	u2745
  1453  00F3                     l592:	
  1454  00F3  30FF               	movlw	255
  1455  00F4  0546               	andwf	___xxtofl@arg+3,w
  1456  00F5  1D03               	btfss	3,2
  1457  00F6  28F8               	goto	u2751
  1458  00F7  28F9               	goto	u2750
  1459  00F8                     u2751:	
  1460  00F8  28D8               	goto	l1863
  1461  00F9                     u2750:	
  1462  00F9  2905               	goto	l1871
  1463  00FA                     l1869:	
  1464  00FA  3001               	movlw	1
  1465  00FB  02C2               	subwf	___xxtofl@exp,f
  1466  00FC  3001               	movlw	1
  1467  00FD  00BD               	movwf	??___xxtofl
  1468  00FE                     u2765:	
  1469  00FE  1003               	clrc
  1470  00FF  0DC3               	rlf	___xxtofl@arg,f
  1471  0100  0DC4               	rlf	___xxtofl@arg+1,f
  1472  0101  0DC5               	rlf	___xxtofl@arg+2,f
  1473  0102  0DC6               	rlf	___xxtofl@arg+3,f
  1474  0103  0BBD               	decfsz	??___xxtofl,f
  1475  0104  28FE               	goto	u2765
  1476  0105                     l1871:	
  1477  0105  1BC5               	btfsc	___xxtofl@arg+2,7
  1478  0106  2908               	goto	u2771
  1479  0107  2909               	goto	u2770
  1480  0108                     u2771:	
  1481  0108  290F               	goto	l599
  1482  0109                     u2770:	
  1483  0109                     l1873:	
  1484  0109  3002               	movlw	2
  1485  010A  0242               	subwf	___xxtofl@exp,w
  1486  010B  1803               	skipnc
  1487  010C  290E               	goto	u2781
  1488  010D  290F               	goto	u2780
  1489  010E                     u2781:	
  1490  010E  28FA               	goto	l1869
  1491  010F                     u2780:	
  1492  010F                     l599:	
  1493  010F  1842               	btfsc	___xxtofl@exp,0
  1494  0110  2912               	goto	u2791
  1495  0111  2913               	goto	u2790
  1496  0112                     u2791:	
  1497  0112  291B               	goto	l600
  1498  0113                     u2790:	
  1499  0113                     l1875:	
  1500  0113  30FF               	movlw	255
  1501  0114  05C3               	andwf	___xxtofl@arg,f
  1502  0115  30FF               	movlw	255
  1503  0116  05C4               	andwf	___xxtofl@arg+1,f
  1504  0117  307F               	movlw	127
  1505  0118  05C5               	andwf	___xxtofl@arg+2,f
  1506  0119  30FF               	movlw	255
  1507  011A  05C6               	andwf	___xxtofl@arg+3,f
  1508  011B                     l600:	
  1509  011B  1003               	clrc
  1510  011C  0CC2               	rrf	___xxtofl@exp,f
  1511  011D                     l1877:	
  1512  011D  0842               	movf	___xxtofl@exp,w
  1513  011E  00BD               	movwf	??___xxtofl
  1514  011F  01BE               	clrf	??___xxtofl+1
  1515  0120  01BF               	clrf	??___xxtofl+2
  1516  0121  01C0               	clrf	??___xxtofl+3
  1517  0122  3018               	movlw	24
  1518  0123                     u2805:	
  1519  0123  1003               	clrc
  1520  0124  0DBD               	rlf	??___xxtofl,f
  1521  0125  0DBE               	rlf	??___xxtofl+1,f
  1522  0126  0DBF               	rlf	??___xxtofl+2,f
  1523  0127  0DC0               	rlf	??___xxtofl+3,f
  1524  0128                     u2800:	
  1525  0128  3EFF               	addlw	-1
  1526  0129  1D03               	skipz
  1527  012A  2923               	goto	u2805
  1528  012B  083D               	movf	??___xxtofl,w
  1529  012C  04C3               	iorwf	___xxtofl@arg,f
  1530  012D  083E               	movf	??___xxtofl+1,w
  1531  012E  04C4               	iorwf	___xxtofl@arg+1,f
  1532  012F  083F               	movf	??___xxtofl+2,w
  1533  0130  04C5               	iorwf	___xxtofl@arg+2,f
  1534  0131  0840               	movf	??___xxtofl+3,w
  1535  0132  04C6               	iorwf	___xxtofl@arg+3,f
  1536  0133                     l1879:	
  1537  0133  0841               	movf	___xxtofl@sign,w
  1538  0134  1903               	btfsc	3,2
  1539  0135  2937               	goto	u2811
  1540  0136  2938               	goto	u2810
  1541  0137                     u2811:	
  1542  0137  293D               	goto	l1885
  1543  0138                     u2810:	
  1544  0138                     l1881:	
  1545  0138  1FBC               	btfss	___xxtofl@val+3,7
  1546  0139  293B               	goto	u2821
  1547  013A  293C               	goto	u2820
  1548  013B                     u2821:	
  1549  013B  293D               	goto	l1885
  1550  013C                     u2820:	
  1551  013C                     l1883:	
  1552  013C  17C6               	bsf	___xxtofl@arg+3,7
  1553  013D                     l1885:	
  1554  013D  0846               	movf	___xxtofl@arg+3,w
  1555  013E  00BC               	movwf	?___xxtofl+3
  1556  013F  0845               	movf	___xxtofl@arg+2,w
  1557  0140  00BB               	movwf	?___xxtofl+2
  1558  0141  0844               	movf	___xxtofl@arg+1,w
  1559  0142  00BA               	movwf	?___xxtofl+1
  1560  0143  0843               	movf	___xxtofl@arg,w
  1561  0144  00B9               	movwf	?___xxtofl
  1562  0145                     l588:	
  1563  0145  0008               	return
  1564  0146                     __end_of___xxtofl:	
  1565                           
  1566                           	psect	text5
  1567  000E                     __ptext5:	
  1568 ;; *************** function ___fltol *****************
  1569 ;; Defined at:
  1570 ;;		line 43 in file "G:\Softwares\XC8\pic\sources\c90\common\fltol.c"
  1571 ;; Parameters:    Size  Location     Type
  1572 ;;  f1              4   16[BANK0 ] unsigned char 
  1573 ;; Auto vars:     Size  Location     Type
  1574 ;;  exp1            1   13[COMMON] unsigned char 
  1575 ;;  sign1           1   12[COMMON] unsigned char 
  1576 ;; Return value:  Size  Location     Type
  1577 ;;                  4   16[BANK0 ] long 
  1578 ;; Registers used:
  1579 ;;		wreg, status,2, status,0
  1580 ;; Tracked objects:
  1581 ;;		On entry : 0/0
  1582 ;;		On exit  : 0/0
  1583 ;;		Unchanged: 0/0
  1584 ;; Data sizes:     COMMON   BANK0   BANK1   BANK3   BANK2
  1585 ;;      Params:         0       4       0       0       0
  1586 ;;      Locals:         2       0       0       0       0
  1587 ;;      Temps:          0       5       0       0       0
  1588 ;;      Totals:         2       9       0       0       0
  1589 ;;Total ram usage:       11 bytes
  1590 ;; Hardware stack levels used:    1
  1591 ;; This function calls:
  1592 ;;		Nothing
  1593 ;; This function is called by:
  1594 ;;		_Lcd_Print_Float
  1595 ;; This function uses a non-reentrant model
  1596 ;;
  1597                           
  1598                           
  1599                           ;psect for function ___fltol
  1600  000E                     ___fltol:	
  1601  000E                     l1663:	
  1602                           ;incstack = 0
  1603                           ; Regs used in ___fltol: [wreg+status,2+status,0]
  1604                           
  1605  000E  1003               	clrc
  1606  000F  1283               	bcf	3,5	;RP0=0, select bank0
  1607  0010  1303               	bcf	3,6	;RP1=0, select bank0
  1608  0011  0D32               	rlf	___fltol@f1+2,w
  1609  0012  0D33               	rlf	___fltol@f1+3,w
  1610  0013  00B4               	movwf	??___fltol
  1611  0014  0834               	movf	??___fltol,w
  1612  0015  00FD               	movwf	___fltol@exp1
  1613  0016  087D               	movf	___fltol@exp1,w
  1614  0017  1D03               	btfss	3,2
  1615  0018  281A               	goto	u2221
  1616  0019  281B               	goto	u2220
  1617  001A                     u2221:	
  1618  001A  2824               	goto	l1669
  1619  001B                     u2220:	
  1620  001B                     l1665:	
  1621  001B  3000               	movlw	0
  1622  001C  00B3               	movwf	?___fltol+3
  1623  001D  3000               	movlw	0
  1624  001E  00B2               	movwf	?___fltol+2
  1625  001F  3000               	movlw	0
  1626  0020  00B1               	movwf	?___fltol+1
  1627  0021  3000               	movlw	0
  1628  0022  00B0               	movwf	?___fltol
  1629  0023  2889               	goto	l345
  1630  0024                     l1669:	
  1631  0024  0830               	movf	___fltol@f1,w
  1632  0025  00B4               	movwf	??___fltol
  1633  0026  0831               	movf	___fltol@f1+1,w
  1634  0027  00B5               	movwf	??___fltol+1
  1635  0028  0832               	movf	___fltol@f1+2,w
  1636  0029  00B6               	movwf	??___fltol+2
  1637  002A  0833               	movf	___fltol@f1+3,w
  1638  002B  00B7               	movwf	??___fltol+3
  1639  002C  301F               	movlw	31
  1640  002D                     u2235:	
  1641  002D  1003               	clrc
  1642  002E  0CB7               	rrf	??___fltol+3,f
  1643  002F  0CB6               	rrf	??___fltol+2,f
  1644  0030  0CB5               	rrf	??___fltol+1,f
  1645  0031  0CB4               	rrf	??___fltol,f
  1646  0032                     u2230:	
  1647  0032  3EFF               	addlw	-1
  1648  0033  1D03               	skipz
  1649  0034  282D               	goto	u2235
  1650  0035  0834               	movf	??___fltol,w
  1651  0036  00B8               	movwf	??___fltol+4
  1652  0037  0838               	movf	??___fltol+4,w
  1653  0038  00FC               	movwf	___fltol@sign1
  1654  0039                     l1671:	
  1655  0039  17B2               	bsf	___fltol@f1+2,7
  1656  003A                     l1673:	
  1657  003A  30FF               	movlw	255
  1658  003B  05B0               	andwf	___fltol@f1,f
  1659  003C  30FF               	movlw	255
  1660  003D  05B1               	andwf	___fltol@f1+1,f
  1661  003E  30FF               	movlw	255
  1662  003F  05B2               	andwf	___fltol@f1+2,f
  1663  0040  3000               	movlw	0
  1664  0041  05B3               	andwf	___fltol@f1+3,f
  1665  0042                     l1675:	
  1666  0042  3096               	movlw	150
  1667  0043  02FD               	subwf	___fltol@exp1,f
  1668  0044                     l1677:	
  1669  0044  1FFD               	btfss	___fltol@exp1,7
  1670  0045  2847               	goto	u2241
  1671  0046  2848               	goto	u2240
  1672  0047                     u2241:	
  1673  0047  2862               	goto	l1687
  1674  0048                     u2240:	
  1675  0048                     l1679:	
  1676  0048  087D               	movf	___fltol@exp1,w
  1677  0049  3A80               	xorlw	128
  1678  004A  3E97               	addlw	151
  1679  004B  1803               	skipnc
  1680  004C  284E               	goto	u2251
  1681  004D  284F               	goto	u2250
  1682  004E                     u2251:	
  1683  004E  2850               	goto	l1685
  1684  004F                     u2250:	
  1685  004F  281B               	goto	l1665
  1686  0050                     l1685:	
  1687  0050  3001               	movlw	1
  1688  0051                     u2265:	
  1689  0051  1003               	clrc
  1690  0052  0CB3               	rrf	___fltol@f1+3,f
  1691  0053  0CB2               	rrf	___fltol@f1+2,f
  1692  0054  0CB1               	rrf	___fltol@f1+1,f
  1693  0055  0CB0               	rrf	___fltol@f1,f
  1694  0056  3EFF               	addlw	-1
  1695  0057  1D03               	skipz
  1696  0058  2851               	goto	u2265
  1697  0059  3001               	movlw	1
  1698  005A  00B4               	movwf	??___fltol
  1699  005B  0834               	movf	??___fltol,w
  1700  005C  07FD               	addwf	___fltol@exp1,f
  1701  005D  1D03               	btfss	3,2
  1702  005E  2860               	goto	u2271
  1703  005F  2861               	goto	u2270
  1704  0060                     u2271:	
  1705  0060  2850               	goto	l1685
  1706  0061                     u2270:	
  1707  0061  2879               	goto	l1695
  1708  0062                     l1687:	
  1709  0062  3020               	movlw	32
  1710  0063  027D               	subwf	___fltol@exp1,w
  1711  0064  1C03               	skipc
  1712  0065  2867               	goto	u2281
  1713  0066  2868               	goto	u2280
  1714  0067                     u2281:	
  1715  0067  2874               	goto	l352
  1716  0068                     u2280:	
  1717  0068  281B               	goto	l1665
  1718  0069                     l1693:	
  1719  0069  3001               	movlw	1
  1720  006A  00B4               	movwf	??___fltol
  1721  006B                     u2295:	
  1722  006B  1003               	clrc
  1723  006C  0DB0               	rlf	___fltol@f1,f
  1724  006D  0DB1               	rlf	___fltol@f1+1,f
  1725  006E  0DB2               	rlf	___fltol@f1+2,f
  1726  006F  0DB3               	rlf	___fltol@f1+3,f
  1727  0070  0BB4               	decfsz	??___fltol,f
  1728  0071  286B               	goto	u2295
  1729  0072  3001               	movlw	1
  1730  0073  02FD               	subwf	___fltol@exp1,f
  1731  0074                     l352:	
  1732  0074  087D               	movf	___fltol@exp1,w
  1733  0075  1D03               	btfss	3,2
  1734  0076  2878               	goto	u2301
  1735  0077  2879               	goto	u2300
  1736  0078                     u2301:	
  1737  0078  2869               	goto	l1693
  1738  0079                     u2300:	
  1739  0079                     l1695:	
  1740  0079  087C               	movf	___fltol@sign1,w
  1741  007A  1903               	btfsc	3,2
  1742  007B  287D               	goto	u2311
  1743  007C  287E               	goto	u2310
  1744  007D                     u2311:	
  1745  007D  2889               	goto	l355
  1746  007E                     u2310:	
  1747  007E                     l1697:	
  1748  007E  09B0               	comf	___fltol@f1,f
  1749  007F  09B1               	comf	___fltol@f1+1,f
  1750  0080  09B2               	comf	___fltol@f1+2,f
  1751  0081  09B3               	comf	___fltol@f1+3,f
  1752  0082  0AB0               	incf	___fltol@f1,f
  1753  0083  1903               	skipnz
  1754  0084  0AB1               	incf	___fltol@f1+1,f
  1755  0085  1903               	skipnz
  1756  0086  0AB2               	incf	___fltol@f1+2,f
  1757  0087  1903               	skipnz
  1758  0088  0AB3               	incf	___fltol@f1+3,f
  1759  0089                     l355:	
  1760  0089                     l345:	
  1761  0089  0008               	return
  1762  008A                     __end_of___fltol:	
  1763                           
  1764                           	psect	text6
  1765  0C8C                     __ptext6:	
  1766 ;; *************** function ___flsub *****************
  1767 ;; Defined at:
  1768 ;;		line 242 in file "G:\Softwares\XC8\pic\sources\c90\common\sprcadd.c"
  1769 ;; Parameters:    Size  Location     Type
  1770 ;;  a               4    8[BANK0 ] long 
  1771 ;;  b               4   12[BANK0 ] long 
  1772 ;; Auto vars:     Size  Location     Type
  1773 ;;		None
  1774 ;; Return value:  Size  Location     Type
  1775 ;;                  4    8[BANK0 ] long 
  1776 ;; Registers used:
  1777 ;;		wreg, status,2, status,0, btemp+1, pclath, cstack
  1778 ;; Tracked objects:
  1779 ;;		On entry : 0/0
  1780 ;;		On exit  : 0/0
  1781 ;;		Unchanged: 0/0
  1782 ;; Data sizes:     COMMON   BANK0   BANK1   BANK3   BANK2
  1783 ;;      Params:         0       8       0       0       0
  1784 ;;      Locals:         0       0       0       0       0
  1785 ;;      Temps:          0       0       0       0       0
  1786 ;;      Totals:         0       8       0       0       0
  1787 ;;Total ram usage:        8 bytes
  1788 ;; Hardware stack levels used:    1
  1789 ;; Hardware stack levels required when called:    1
  1790 ;; This function calls:
  1791 ;;		___fladd
  1792 ;; This function is called by:
  1793 ;;		_Lcd_Print_Float
  1794 ;; This function uses a non-reentrant model
  1795 ;;
  1796                           
  1797                           
  1798                           ;psect for function ___flsub
  1799  0C8C                     ___flsub:	
  1800  0C8C                     l1699:	
  1801                           ;incstack = 0
  1802                           ; Regs used in ___flsub: [wreg+status,2+status,0+btemp+1+pclath+cstack]
  1803                           
  1804  0C8C  3080               	movlw	128
  1805  0C8D  1283               	bcf	3,5	;RP0=0, select bank0
  1806  0C8E  1303               	bcf	3,6	;RP1=0, select bank0
  1807  0C8F  06AB               	xorwf	___flsub@a+3,f
  1808  0C90                     l1701:	
  1809  0C90  082F               	movf	___flsub@b+3,w
  1810  0C91  00F3               	movwf	___fladd@b+3
  1811  0C92  082E               	movf	___flsub@b+2,w
  1812  0C93  00F2               	movwf	___fladd@b+2
  1813  0C94  082D               	movf	___flsub@b+1,w
  1814  0C95  00F1               	movwf	___fladd@b+1
  1815  0C96  082C               	movf	___flsub@b,w
  1816  0C97  00F0               	movwf	___fladd@b
  1817  0C98  082B               	movf	___flsub@a+3,w
  1818  0C99  00F7               	movwf	___fladd@a+3
  1819  0C9A  082A               	movf	___flsub@a+2,w
  1820  0C9B  00F6               	movwf	___fladd@a+2
  1821  0C9C  0829               	movf	___flsub@a+1,w
  1822  0C9D  00F5               	movwf	___fladd@a+1
  1823  0C9E  0828               	movf	___flsub@a,w
  1824  0C9F  00F4               	movwf	___fladd@a
  1825  0CA0  120A  118A  2203  120A  158A  	fcall	___fladd
  1826  0CA5  0873               	movf	?___fladd+3,w
  1827  0CA6  1283               	bcf	3,5	;RP0=0, select bank0
  1828  0CA7  1303               	bcf	3,6	;RP1=0, select bank0
  1829  0CA8  00AB               	movwf	?___flsub+3
  1830  0CA9  0872               	movf	?___fladd+2,w
  1831  0CAA  00AA               	movwf	?___flsub+2
  1832  0CAB  0871               	movf	?___fladd+1,w
  1833  0CAC  00A9               	movwf	?___flsub+1
  1834  0CAD  0870               	movf	?___fladd,w
  1835  0CAE  00A8               	movwf	?___flsub
  1836  0CAF                     l498:	
  1837  0CAF  0008               	return
  1838  0CB0                     __end_of___flsub:	
  1839                           
  1840                           	psect	text7
  1841  0203                     __ptext7:	
  1842 ;; *************** function ___fladd *****************
  1843 ;; Defined at:
  1844 ;;		line 10 in file "G:\Softwares\XC8\pic\sources\c90\common\sprcadd.c"
  1845 ;; Parameters:    Size  Location     Type
  1846 ;;  b               4    0[COMMON] long 
  1847 ;;  a               4    4[COMMON] long 
  1848 ;; Auto vars:     Size  Location     Type
  1849 ;;  grs             1   11[COMMON] unsigned char 
  1850 ;;  bexp            1   10[COMMON] unsigned char 
  1851 ;;  aexp            1    9[COMMON] unsigned char 
  1852 ;;  signs           1    8[COMMON] unsigned char 
  1853 ;; Return value:  Size  Location     Type
  1854 ;;                  4    0[COMMON] unsigned char 
  1855 ;; Registers used:
  1856 ;;		wreg, status,2, status,0, btemp+1
  1857 ;; Tracked objects:
  1858 ;;		On entry : 0/0
  1859 ;;		On exit  : 0/0
  1860 ;;		Unchanged: 0/0
  1861 ;; Data sizes:     COMMON   BANK0   BANK1   BANK3   BANK2
  1862 ;;      Params:         8       0       0       0       0
  1863 ;;      Locals:         4       0       0       0       0
  1864 ;;      Temps:          0       8       0       0       0
  1865 ;;      Totals:        12       8       0       0       0
  1866 ;;Total ram usage:       20 bytes
  1867 ;; Hardware stack levels used:    1
  1868 ;; This function calls:
  1869 ;;		Nothing
  1870 ;; This function is called by:
  1871 ;;		___flsub
  1872 ;; This function uses a non-reentrant model
  1873 ;;
  1874                           
  1875                           
  1876                           ;psect for function ___fladd
  1877  0203                     ___fladd:	
  1878  0203                     l1427:	
  1879                           ;incstack = 0
  1880                           ; Regs used in ___fladd: [wreg+status,2+status,0+btemp+1]
  1881                           
  1882  0203  0873               	movf	___fladd@b+3,w
  1883  0204  3980               	andlw	128
  1884  0205  1283               	bcf	3,5	;RP0=0, select bank0
  1885  0206  1303               	bcf	3,6	;RP1=0, select bank0
  1886  0207  00A0               	movwf	??___fladd
  1887  0208  0820               	movf	??___fladd,w
  1888  0209  00F8               	movwf	___fladd@signs
  1889  020A                     l1429:	
  1890  020A  0873               	movf	___fladd@b+3,w
  1891  020B  00A0               	movwf	??___fladd
  1892  020C  0720               	addwf	??___fladd,w
  1893  020D  00A1               	movwf	??___fladd+1
  1894  020E  0821               	movf	??___fladd+1,w
  1895  020F  00FA               	movwf	___fladd@bexp
  1896  0210                     l1431:	
  1897  0210  1FF2               	btfss	___fladd@b+2,7
  1898  0211  2A13               	goto	u1711
  1899  0212  2A14               	goto	u1710
  1900  0213                     u1711:	
  1901  0213  2A15               	goto	l1435
  1902  0214                     u1710:	
  1903  0214                     l1433:	
  1904  0214  147A               	bsf	___fladd@bexp,0
  1905  0215                     l1435:	
  1906  0215  087A               	movf	___fladd@bexp,w
  1907  0216  1903               	btfsc	3,2
  1908  0217  2A19               	goto	u1721
  1909  0218  2A1A               	goto	u1720
  1910  0219                     u1721:	
  1911  0219  2A2A               	goto	l1445
  1912  021A                     u1720:	
  1913  021A                     l1437:	
  1914  021A  0A7A               	incf	___fladd@bexp,w
  1915  021B  1D03               	btfss	3,2
  1916  021C  2A1E               	goto	u1731
  1917  021D  2A1F               	goto	u1730
  1918  021E                     u1731:	
  1919  021E  2A27               	goto	l1441
  1920  021F                     u1730:	
  1921  021F                     l1439:	
  1922  021F  3000               	movlw	0
  1923  0220  00F3               	movwf	___fladd@b+3
  1924  0221  3000               	movlw	0
  1925  0222  00F2               	movwf	___fladd@b+2
  1926  0223  3000               	movlw	0
  1927  0224  00F1               	movwf	___fladd@b+1
  1928  0225  3000               	movlw	0
  1929  0226  00F0               	movwf	___fladd@b
  1930  0227                     l1441:	
  1931  0227  17F2               	bsf	___fladd@b+2,7
  1932  0228                     l1443:	
  1933  0228  01F3               	clrf	___fladd@b+3
  1934  0229  2A32               	goto	l1447
  1935  022A                     l1445:	
  1936  022A  3000               	movlw	0
  1937  022B  00F3               	movwf	___fladd@b+3
  1938  022C  3000               	movlw	0
  1939  022D  00F2               	movwf	___fladd@b+2
  1940  022E  3000               	movlw	0
  1941  022F  00F1               	movwf	___fladd@b+1
  1942  0230  3000               	movlw	0
  1943  0231  00F0               	movwf	___fladd@b
  1944  0232                     l1447:	
  1945  0232  0877               	movf	___fladd@a+3,w
  1946  0233  3980               	andlw	128
  1947  0234  00A0               	movwf	??___fladd
  1948  0235  0820               	movf	??___fladd,w
  1949  0236  00F9               	movwf	___fladd@aexp
  1950  0237                     l1449:	
  1951  0237  0879               	movf	___fladd@aexp,w
  1952  0238  0678               	xorwf	___fladd@signs,w
  1953  0239  1903               	skipnz
  1954  023A  2A3C               	goto	u1741
  1955  023B  2A3D               	goto	u1740
  1956  023C                     u1741:	
  1957  023C  2A3E               	goto	l1453
  1958  023D                     u1740:	
  1959  023D                     l1451:	
  1960  023D  1778               	bsf	___fladd@signs,6
  1961  023E                     l1453:	
  1962  023E  0877               	movf	___fladd@a+3,w
  1963  023F  00A0               	movwf	??___fladd
  1964  0240  0720               	addwf	??___fladd,w
  1965  0241  00A1               	movwf	??___fladd+1
  1966  0242  0821               	movf	??___fladd+1,w
  1967  0243  00F9               	movwf	___fladd@aexp
  1968  0244                     l1455:	
  1969  0244  1FF6               	btfss	___fladd@a+2,7
  1970  0245  2A47               	goto	u1751
  1971  0246  2A48               	goto	u1750
  1972  0247                     u1751:	
  1973  0247  2A49               	goto	l1459
  1974  0248                     u1750:	
  1975  0248                     l1457:	
  1976  0248  1479               	bsf	___fladd@aexp,0
  1977  0249                     l1459:	
  1978  0249  0879               	movf	___fladd@aexp,w
  1979  024A  1903               	btfsc	3,2
  1980  024B  2A4D               	goto	u1761
  1981  024C  2A4E               	goto	u1760
  1982  024D                     u1761:	
  1983  024D  2A5E               	goto	l1469
  1984  024E                     u1760:	
  1985  024E                     l1461:	
  1986  024E  0A79               	incf	___fladd@aexp,w
  1987  024F  1D03               	btfss	3,2
  1988  0250  2A52               	goto	u1771
  1989  0251  2A53               	goto	u1770
  1990  0252                     u1771:	
  1991  0252  2A5B               	goto	l1465
  1992  0253                     u1770:	
  1993  0253                     l1463:	
  1994  0253  3000               	movlw	0
  1995  0254  00F7               	movwf	___fladd@a+3
  1996  0255  3000               	movlw	0
  1997  0256  00F6               	movwf	___fladd@a+2
  1998  0257  3000               	movlw	0
  1999  0258  00F5               	movwf	___fladd@a+1
  2000  0259  3000               	movlw	0
  2001  025A  00F4               	movwf	___fladd@a
  2002  025B                     l1465:	
  2003  025B  17F6               	bsf	___fladd@a+2,7
  2004  025C                     l1467:	
  2005  025C  01F7               	clrf	___fladd@a+3
  2006  025D  2A66               	goto	l452
  2007  025E                     l1469:	
  2008  025E  3000               	movlw	0
  2009  025F  00F7               	movwf	___fladd@a+3
  2010  0260  3000               	movlw	0
  2011  0261  00F6               	movwf	___fladd@a+2
  2012  0262  3000               	movlw	0
  2013  0263  00F5               	movwf	___fladd@a+1
  2014  0264  3000               	movlw	0
  2015  0265  00F4               	movwf	___fladd@a
  2016  0266                     l452:	
  2017  0266  087A               	movf	___fladd@bexp,w
  2018  0267  0279               	subwf	___fladd@aexp,w
  2019  0268  1803               	skipnc
  2020  0269  2A6B               	goto	u1781
  2021  026A  2A6C               	goto	u1780
  2022  026B                     u1781:	
  2023  026B  2AB0               	goto	l1505
  2024  026C                     u1780:	
  2025  026C                     l1471:	
  2026  026C  1F78               	btfss	___fladd@signs,6
  2027  026D  2A6F               	goto	u1791
  2028  026E  2A70               	goto	u1790
  2029  026F                     u1791:	
  2030  026F  2A74               	goto	l1475
  2031  0270                     u1790:	
  2032  0270                     l1473:	
  2033  0270  3080               	movlw	128
  2034  0271  00A0               	movwf	??___fladd
  2035  0272  0820               	movf	??___fladd,w
  2036  0273  06F8               	xorwf	___fladd@signs,f
  2037  0274                     l1475:	
  2038  0274  087A               	movf	___fladd@bexp,w
  2039  0275  00A0               	movwf	??___fladd
  2040  0276  0820               	movf	??___fladd,w
  2041  0277  00FB               	movwf	___fladd@grs
  2042  0278                     l1477:	
  2043  0278  0879               	movf	___fladd@aexp,w
  2044  0279  00A0               	movwf	??___fladd
  2045  027A  0820               	movf	??___fladd,w
  2046  027B  00FA               	movwf	___fladd@bexp
  2047  027C                     l1479:	
  2048  027C  087B               	movf	___fladd@grs,w
  2049  027D  00A0               	movwf	??___fladd
  2050  027E  0820               	movf	??___fladd,w
  2051  027F  00F9               	movwf	___fladd@aexp
  2052  0280                     l1481:	
  2053  0280  0870               	movf	___fladd@b,w
  2054  0281  00A0               	movwf	??___fladd
  2055  0282  0820               	movf	??___fladd,w
  2056  0283  00FB               	movwf	___fladd@grs
  2057  0284                     l1483:	
  2058  0284  0874               	movf	___fladd@a,w
  2059  0285  00A0               	movwf	??___fladd
  2060  0286  0820               	movf	??___fladd,w
  2061  0287  00F0               	movwf	___fladd@b
  2062  0288                     l1485:	
  2063  0288  087B               	movf	___fladd@grs,w
  2064  0289  00A0               	movwf	??___fladd
  2065  028A  0820               	movf	??___fladd,w
  2066  028B  00F4               	movwf	___fladd@a
  2067  028C                     l1487:	
  2068  028C  0871               	movf	___fladd@b+1,w
  2069  028D  00A0               	movwf	??___fladd
  2070  028E  0820               	movf	??___fladd,w
  2071  028F  00FB               	movwf	___fladd@grs
  2072  0290                     l1489:	
  2073  0290  0875               	movf	___fladd@a+1,w
  2074  0291  00A0               	movwf	??___fladd
  2075  0292  0820               	movf	??___fladd,w
  2076  0293  00F1               	movwf	___fladd@b+1
  2077  0294                     l1491:	
  2078  0294  087B               	movf	___fladd@grs,w
  2079  0295  00A0               	movwf	??___fladd
  2080  0296  0820               	movf	??___fladd,w
  2081  0297  00F5               	movwf	___fladd@a+1
  2082  0298                     l1493:	
  2083  0298  0872               	movf	___fladd@b+2,w
  2084  0299  00A0               	movwf	??___fladd
  2085  029A  0820               	movf	??___fladd,w
  2086  029B  00FB               	movwf	___fladd@grs
  2087  029C                     l1495:	
  2088  029C  0876               	movf	___fladd@a+2,w
  2089  029D  00A0               	movwf	??___fladd
  2090  029E  0820               	movf	??___fladd,w
  2091  029F  00F2               	movwf	___fladd@b+2
  2092  02A0                     l1497:	
  2093  02A0  087B               	movf	___fladd@grs,w
  2094  02A1  00A0               	movwf	??___fladd
  2095  02A2  0820               	movf	??___fladd,w
  2096  02A3  00F6               	movwf	___fladd@a+2
  2097  02A4                     l1499:	
  2098  02A4  0873               	movf	___fladd@b+3,w
  2099  02A5  00A0               	movwf	??___fladd
  2100  02A6  0820               	movf	??___fladd,w
  2101  02A7  00FB               	movwf	___fladd@grs
  2102  02A8                     l1501:	
  2103  02A8  0877               	movf	___fladd@a+3,w
  2104  02A9  00A0               	movwf	??___fladd
  2105  02AA  0820               	movf	??___fladd,w
  2106  02AB  00F3               	movwf	___fladd@b+3
  2107  02AC                     l1503:	
  2108  02AC  087B               	movf	___fladd@grs,w
  2109  02AD  00A0               	movwf	??___fladd
  2110  02AE  0820               	movf	??___fladd,w
  2111  02AF  00F7               	movwf	___fladd@a+3
  2112  02B0                     l1505:	
  2113  02B0  01FB               	clrf	___fladd@grs
  2114  02B1                     l1507:	
  2115  02B1  0879               	movf	___fladd@aexp,w
  2116  02B2  00A0               	movwf	??___fladd
  2117  02B3  01A1               	clrf	??___fladd+1
  2118  02B4  0821               	movf	??___fladd+1,w
  2119  02B5  00A3               	movwf	??___fladd+3
  2120  02B6  087A               	movf	___fladd@bexp,w
  2121  02B7  0220               	subwf	??___fladd,w
  2122  02B8  00A2               	movwf	??___fladd+2
  2123  02B9  1C03               	skipc
  2124  02BA  03A3               	decf	??___fladd+3,f
  2125  02BB  0823               	movf	??___fladd+3,w
  2126  02BC  3A80               	xorlw	128
  2127  02BD  00FF               	movwf	btemp+1
  2128  02BE  3080               	movlw	128
  2129  02BF  027F               	subwf	btemp+1,w
  2130  02C0  1D03               	skipz
  2131  02C1  2AC4               	goto	u1805
  2132  02C2  301A               	movlw	26
  2133  02C3  0222               	subwf	??___fladd+2,w
  2134  02C4                     u1805:	
  2135  02C4  1C03               	skipc
  2136  02C5  2AC7               	goto	u1801
  2137  02C6  2AC8               	goto	u1800
  2138  02C7                     u1801:	
  2139  02C7  2B09               	goto	l1523
  2140  02C8                     u1800:	
  2141  02C8                     l1509:	
  2142  02C8  0873               	movf	___fladd@b+3,w
  2143  02C9  0472               	iorwf	___fladd@b+2,w
  2144  02CA  0471               	iorwf	___fladd@b+1,w
  2145  02CB  0470               	iorwf	___fladd@b,w
  2146  02CC  1D03               	skipz
  2147  02CD  2ACF               	goto	u1811
  2148  02CE  2AD1               	goto	u1810
  2149  02CF                     u1811:	
  2150  02CF  3001               	movlw	1
  2151  02D0  2AD2               	goto	u1820
  2152  02D1                     u1810:	
  2153  02D1  3000               	movlw	0
  2154  02D2                     u1820:	
  2155  02D2  1283               	bcf	3,5	;RP0=0, select bank0
  2156  02D3  1303               	bcf	3,6	;RP1=0, select bank0
  2157  02D4  00A0               	movwf	??___fladd
  2158  02D5  0820               	movf	??___fladd,w
  2159  02D6  00FB               	movwf	___fladd@grs
  2160  02D7  3000               	movlw	0
  2161  02D8  00F3               	movwf	___fladd@b+3
  2162  02D9  3000               	movlw	0
  2163  02DA  00F2               	movwf	___fladd@b+2
  2164  02DB  3000               	movlw	0
  2165  02DC  00F1               	movwf	___fladd@b+1
  2166  02DD  3000               	movlw	0
  2167  02DE  00F0               	movwf	___fladd@b
  2168  02DF  0879               	movf	___fladd@aexp,w
  2169  02E0  00A0               	movwf	??___fladd
  2170  02E1  0820               	movf	??___fladd,w
  2171  02E2  00FA               	movwf	___fladd@bexp
  2172  02E3  2B0F               	goto	l456
  2173  02E4                     l458:	
  2174  02E4  1C7B               	btfss	___fladd@grs,0
  2175  02E5  2AE7               	goto	u1831
  2176  02E6  2AE8               	goto	u1830
  2177  02E7                     u1831:	
  2178  02E7  2AF3               	goto	l1513
  2179  02E8                     u1830:	
  2180  02E8                     l1511:	
  2181  02E8  087B               	movf	___fladd@grs,w
  2182  02E9  1283               	bcf	3,5	;RP0=0, select bank0
  2183  02EA  1303               	bcf	3,6	;RP1=0, select bank0
  2184  02EB  00A0               	movwf	??___fladd
  2185  02EC  1003               	clrc
  2186  02ED  0C20               	rrf	??___fladd,w
  2187  02EE  3801               	iorlw	1
  2188  02EF  00A1               	movwf	??___fladd+1
  2189  02F0  0821               	movf	??___fladd+1,w
  2190  02F1  00FB               	movwf	___fladd@grs
  2191  02F2  2AF5               	goto	l1515
  2192  02F3                     l1513:	
  2193  02F3  1003               	clrc
  2194  02F4  0CFB               	rrf	___fladd@grs,f
  2195  02F5                     l1515:	
  2196  02F5  1C70               	btfss	___fladd@b,0
  2197  02F6  2AF8               	goto	u1841
  2198  02F7  2AF9               	goto	u1840
  2199  02F8                     u1841:	
  2200  02F8  2AFA               	goto	l1519
  2201  02F9                     u1840:	
  2202  02F9                     l1517:	
  2203  02F9  17FB               	bsf	___fladd@grs,7
  2204  02FA                     l1519:	
  2205  02FA  3001               	movlw	1
  2206  02FB  1283               	bcf	3,5	;RP0=0, select bank0
  2207  02FC  1303               	bcf	3,6	;RP1=0, select bank0
  2208  02FD  00A0               	movwf	??___fladd
  2209  02FE                     u1855:	
  2210  02FE  0D73               	rlf	___fladd@b+3,w
  2211  02FF  0CF3               	rrf	___fladd@b+3,f
  2212  0300  0CF2               	rrf	___fladd@b+2,f
  2213  0301  0CF1               	rrf	___fladd@b+1,f
  2214  0302  0CF0               	rrf	___fladd@b,f
  2215  0303  0BA0               	decfsz	??___fladd& (0+127),f
  2216  0304  2AFE               	goto	u1855
  2217  0305                     l1521:	
  2218  0305  3001               	movlw	1
  2219  0306  00A0               	movwf	??___fladd
  2220  0307  0820               	movf	??___fladd,w
  2221  0308  07FA               	addwf	___fladd@bexp,f
  2222  0309                     l1523:	
  2223  0309  0879               	movf	___fladd@aexp,w
  2224  030A  027A               	subwf	___fladd@bexp,w
  2225  030B  1C03               	skipc
  2226  030C  2B0E               	goto	u1861
  2227  030D  2B0F               	goto	u1860
  2228  030E                     u1861:	
  2229  030E  2AE4               	goto	l458
  2230  030F                     u1860:	
  2231  030F                     l456:	
  2232  030F  1B78               	btfsc	___fladd@signs,6
  2233  0310  2B12               	goto	u1871
  2234  0311  2B13               	goto	u1870
  2235  0312                     u1871:	
  2236  0312  2B62               	goto	l1549
  2237  0313                     u1870:	
  2238  0313                     l1525:	
  2239  0313  087A               	movf	___fladd@bexp,w
  2240  0314  1D03               	btfss	3,2
  2241  0315  2B17               	goto	u1881
  2242  0316  2B18               	goto	u1880
  2243  0317                     u1881:	
  2244  0317  2B21               	goto	l1531
  2245  0318                     u1880:	
  2246  0318                     l1527:	
  2247  0318  3000               	movlw	0
  2248  0319  00F3               	movwf	?___fladd+3
  2249  031A  3000               	movlw	0
  2250  031B  00F2               	movwf	?___fladd+2
  2251  031C  3000               	movlw	0
  2252  031D  00F1               	movwf	?___fladd+1
  2253  031E  3000               	movlw	0
  2254  031F  00F0               	movwf	?___fladd
  2255  0320  2C9A               	goto	l465
  2256  0321                     l1531:	
  2257  0321  0874               	movf	___fladd@a,w
  2258  0322  07F0               	addwf	___fladd@b,f
  2259  0323  0875               	movf	___fladd@a+1,w
  2260  0324  1103               	clrz
  2261  0325  1803               	skipnc
  2262  0326  3E01               	addlw	1
  2263  0327  1903               	skipnz
  2264  0328  2B2A               	goto	u1891
  2265  0329  07F1               	addwf	___fladd@b+1,f
  2266  032A                     u1891:	
  2267  032A  0876               	movf	___fladd@a+2,w
  2268  032B  1103               	clrz
  2269  032C  1803               	skipnc
  2270  032D  3E01               	addlw	1
  2271  032E  1903               	skipnz
  2272  032F  2B31               	goto	u1892
  2273  0330  07F2               	addwf	___fladd@b+2,f
  2274  0331                     u1892:	
  2275  0331  0877               	movf	___fladd@a+3,w
  2276  0332  1103               	clrz
  2277  0333  1803               	skipnc
  2278  0334  3E01               	addlw	1
  2279  0335  1903               	skipnz
  2280  0336  2B38               	goto	u1893
  2281  0337  07F3               	addwf	___fladd@b+3,f
  2282  0338                     u1893:	
  2283  0338                     l1533:	
  2284  0338  1C73               	btfss	___fladd@b+3,0
  2285  0339  2B3B               	goto	u1901
  2286  033A  2B3C               	goto	u1900
  2287  033B                     u1901:	
  2288  033B  2C1A               	goto	l1583
  2289  033C                     u1900:	
  2290  033C                     l1535:	
  2291  033C  1C7B               	btfss	___fladd@grs,0
  2292  033D  2B3F               	goto	u1911
  2293  033E  2B40               	goto	u1910
  2294  033F                     u1911:	
  2295  033F  2B4B               	goto	l1539
  2296  0340                     u1910:	
  2297  0340                     l1537:	
  2298  0340  087B               	movf	___fladd@grs,w
  2299  0341  1283               	bcf	3,5	;RP0=0, select bank0
  2300  0342  1303               	bcf	3,6	;RP1=0, select bank0
  2301  0343  00A0               	movwf	??___fladd
  2302  0344  1003               	clrc
  2303  0345  0C20               	rrf	??___fladd,w
  2304  0346  3801               	iorlw	1
  2305  0347  00A1               	movwf	??___fladd+1
  2306  0348  0821               	movf	??___fladd+1,w
  2307  0349  00FB               	movwf	___fladd@grs
  2308  034A  2B4D               	goto	l1541
  2309  034B                     l1539:	
  2310  034B  1003               	clrc
  2311  034C  0CFB               	rrf	___fladd@grs,f
  2312  034D                     l1541:	
  2313  034D  1C70               	btfss	___fladd@b,0
  2314  034E  2B50               	goto	u1921
  2315  034F  2B51               	goto	u1920
  2316  0350                     u1921:	
  2317  0350  2B52               	goto	l1545
  2318  0351                     u1920:	
  2319  0351                     l1543:	
  2320  0351  17FB               	bsf	___fladd@grs,7
  2321  0352                     l1545:	
  2322  0352  3001               	movlw	1
  2323  0353  1283               	bcf	3,5	;RP0=0, select bank0
  2324  0354  1303               	bcf	3,6	;RP1=0, select bank0
  2325  0355  00A0               	movwf	??___fladd
  2326  0356                     u1935:	
  2327  0356  0D73               	rlf	___fladd@b+3,w
  2328  0357  0CF3               	rrf	___fladd@b+3,f
  2329  0358  0CF2               	rrf	___fladd@b+2,f
  2330  0359  0CF1               	rrf	___fladd@b+1,f
  2331  035A  0CF0               	rrf	___fladd@b,f
  2332  035B  0BA0               	decfsz	??___fladd& (0+127),f
  2333  035C  2B56               	goto	u1935
  2334  035D                     l1547:	
  2335  035D  3001               	movlw	1
  2336  035E  00A0               	movwf	??___fladd
  2337  035F  0820               	movf	??___fladd,w
  2338  0360  07FA               	addwf	___fladd@bexp,f
  2339  0361  2C1A               	goto	l1583
  2340  0362                     l1549:	
  2341  0362  0873               	movf	___fladd@b+3,w
  2342  0363  3A80               	xorlw	128
  2343  0364  00FF               	movwf	btemp+1
  2344  0365  0877               	movf	___fladd@a+3,w
  2345  0366  3A80               	xorlw	128
  2346  0367  027F               	subwf	btemp+1,w
  2347  0368  1D03               	skipz
  2348  0369  2B74               	goto	u1943
  2349  036A  0876               	movf	___fladd@a+2,w
  2350  036B  0272               	subwf	___fladd@b+2,w
  2351  036C  1D03               	skipz
  2352  036D  2B74               	goto	u1943
  2353  036E  0875               	movf	___fladd@a+1,w
  2354  036F  0271               	subwf	___fladd@b+1,w
  2355  0370  1D03               	skipz
  2356  0371  2B74               	goto	u1943
  2357  0372  0874               	movf	___fladd@a,w
  2358  0373  0270               	subwf	___fladd@b,w
  2359  0374                     u1943:	
  2360  0374  1803               	skipnc
  2361  0375  2B77               	goto	u1941
  2362  0376  2B78               	goto	u1940
  2363  0377                     u1941:	
  2364  0377  2BD2               	goto	l1559
  2365  0378                     u1940:	
  2366  0378                     l1551:	
  2367  0378  30FF               	movlw	255
  2368  0379  1283               	bcf	3,5	;RP0=0, select bank0
  2369  037A  1303               	bcf	3,6	;RP1=0, select bank0
  2370  037B  00A0               	movwf	??___fladd
  2371  037C  30FF               	movlw	255
  2372  037D  00A1               	movwf	??___fladd+1
  2373  037E  30FF               	movlw	255
  2374  037F  00A2               	movwf	??___fladd+2
  2375  0380  30FF               	movlw	255
  2376  0381  00A3               	movwf	??___fladd+3
  2377  0382  0874               	movf	___fladd@a,w
  2378  0383  00A4               	movwf	??___fladd+4
  2379  0384  0875               	movf	___fladd@a+1,w
  2380  0385  00A5               	movwf	??___fladd+5
  2381  0386  0876               	movf	___fladd@a+2,w
  2382  0387  00A6               	movwf	??___fladd+6
  2383  0388  0877               	movf	___fladd@a+3,w
  2384  0389  00A7               	movwf	??___fladd+7
  2385  038A  0870               	movf	___fladd@b,w
  2386  038B  02A4               	subwf	??___fladd+4,f
  2387  038C  0871               	movf	___fladd@b+1,w
  2388  038D  1C03               	skipc
  2389  038E  0F71               	incfsz	___fladd@b+1,w
  2390  038F  2B91               	goto	u1951
  2391  0390  2B92               	goto	u1952
  2392  0391                     u1951:	
  2393  0391  02A5               	subwf	??___fladd+5,f
  2394  0392                     u1952:	
  2395  0392  0872               	movf	___fladd@b+2,w
  2396  0393  1C03               	skipc
  2397  0394  0F72               	incfsz	___fladd@b+2,w
  2398  0395  2B97               	goto	u1953
  2399  0396  2B98               	goto	u1954
  2400  0397                     u1953:	
  2401  0397  02A6               	subwf	??___fladd+6,f
  2402  0398                     u1954:	
  2403  0398  0873               	movf	___fladd@b+3,w
  2404  0399  1C03               	skipc
  2405  039A  0F73               	incfsz	___fladd@b+3,w
  2406  039B  2B9D               	goto	u1955
  2407  039C  2B9E               	goto	u1956
  2408  039D                     u1955:	
  2409  039D  02A7               	subwf	??___fladd+7,f
  2410  039E                     u1956:	
  2411  039E  0824               	movf	??___fladd+4,w
  2412  039F  07A0               	addwf	??___fladd,f
  2413  03A0  0825               	movf	??___fladd+5,w
  2414  03A1  1803               	skipnc
  2415  03A2  0F25               	incfsz	??___fladd+5,w
  2416  03A3  2BA5               	goto	u1960
  2417  03A4  2BA6               	goto	u1961
  2418  03A5                     u1960:	
  2419  03A5  07A1               	addwf	??___fladd+1,f
  2420  03A6                     u1961:	
  2421  03A6  0826               	movf	??___fladd+6,w
  2422  03A7  1803               	skipnc
  2423  03A8  0F26               	incfsz	??___fladd+6,w
  2424  03A9  2BAB               	goto	u1962
  2425  03AA  2BAC               	goto	u1963
  2426  03AB                     u1962:	
  2427  03AB  07A2               	addwf	??___fladd+2,f
  2428  03AC                     u1963:	
  2429  03AC  0827               	movf	??___fladd+7,w
  2430  03AD  1803               	skipnc
  2431  03AE  0A27               	incf	??___fladd+7,w
  2432  03AF  07A3               	addwf	??___fladd+3,f
  2433  03B0  0823               	movf	??___fladd+3,w
  2434  03B1  00F3               	movwf	___fladd@b+3
  2435  03B2  0822               	movf	??___fladd+2,w
  2436  03B3  00F2               	movwf	___fladd@b+2
  2437  03B4  0821               	movf	??___fladd+1,w
  2438  03B5  00F1               	movwf	___fladd@b+1
  2439  03B6  0820               	movf	??___fladd,w
  2440  03B7  00F0               	movwf	___fladd@b
  2441  03B8                     l1553:	
  2442  03B8  3080               	movlw	128
  2443  03B9  00A0               	movwf	??___fladd
  2444  03BA  0820               	movf	??___fladd,w
  2445  03BB  06F8               	xorwf	___fladd@signs,f
  2446  03BC  09FB               	comf	___fladd@grs,f
  2447  03BD  0AFB               	incf	___fladd@grs,f
  2448  03BE                     l1555:	
  2449  03BE  087B               	movf	___fladd@grs,w
  2450  03BF  1D03               	btfss	3,2
  2451  03C0  2BC2               	goto	u1971
  2452  03C1  2BC3               	goto	u1970
  2453  03C2                     u1971:	
  2454  03C2  2BE0               	goto	l473
  2455  03C3                     u1970:	
  2456  03C3                     l1557:	
  2457  03C3  3001               	movlw	1
  2458  03C4  07F0               	addwf	___fladd@b,f
  2459  03C5  3000               	movlw	0
  2460  03C6  1803               	skipnc
  2461  03C7  3001               	movlw	1
  2462  03C8  07F1               	addwf	___fladd@b+1,f
  2463  03C9  3000               	movlw	0
  2464  03CA  1803               	skipnc
  2465  03CB  3001               	movlw	1
  2466  03CC  07F2               	addwf	___fladd@b+2,f
  2467  03CD  3000               	movlw	0
  2468  03CE  1803               	skipnc
  2469  03CF  3001               	movlw	1
  2470  03D0  07F3               	addwf	___fladd@b+3,f
  2471  03D1  2BE0               	goto	l473
  2472  03D2                     l1559:	
  2473  03D2  0874               	movf	___fladd@a,w
  2474  03D3  02F0               	subwf	___fladd@b,f
  2475  03D4  0875               	movf	___fladd@a+1,w
  2476  03D5  1C03               	skipc
  2477  03D6  0F75               	incfsz	___fladd@a+1,w
  2478  03D7  02F1               	subwf	___fladd@b+1,f
  2479  03D8  0876               	movf	___fladd@a+2,w
  2480  03D9  1C03               	skipc
  2481  03DA  0F76               	incfsz	___fladd@a+2,w
  2482  03DB  02F2               	subwf	___fladd@b+2,f
  2483  03DC  0877               	movf	___fladd@a+3,w
  2484  03DD  1C03               	skipc
  2485  03DE  0F77               	incfsz	___fladd@a+3,w
  2486  03DF  02F3               	subwf	___fladd@b+3,f
  2487  03E0                     l473:	
  2488  03E0  0873               	movf	___fladd@b+3,w
  2489  03E1  0472               	iorwf	___fladd@b+2,w
  2490  03E2  0471               	iorwf	___fladd@b+1,w
  2491  03E3  0470               	iorwf	___fladd@b,w
  2492  03E4  1D03               	skipz
  2493  03E5  2BE7               	goto	u1981
  2494  03E6  2BE8               	goto	u1980
  2495  03E7                     u1981:	
  2496  03E7  2C16               	goto	l1581
  2497  03E8                     u1980:	
  2498  03E8                     l1561:	
  2499  03E8  087B               	movf	___fladd@grs,w
  2500  03E9  1D03               	btfss	3,2
  2501  03EA  2BEC               	goto	u1991
  2502  03EB  2BED               	goto	u1990
  2503  03EC                     u1991:	
  2504  03EC  2C16               	goto	l1581
  2505  03ED                     u1990:	
  2506  03ED                     l1563:	
  2507  03ED  3000               	movlw	0
  2508  03EE  00F3               	movwf	?___fladd+3
  2509  03EF  3000               	movlw	0
  2510  03F0  00F2               	movwf	?___fladd+2
  2511  03F1  3000               	movlw	0
  2512  03F2  00F1               	movwf	?___fladd+1
  2513  03F3  3000               	movlw	0
  2514  03F4  00F0               	movwf	?___fladd
  2515  03F5  2C9A               	goto	l465
  2516  03F6                     l1567:	
  2517  03F6  3001               	movlw	1
  2518  03F7  1283               	bcf	3,5	;RP0=0, select bank0
  2519  03F8  1303               	bcf	3,6	;RP1=0, select bank0
  2520  03F9  00A0               	movwf	??___fladd
  2521  03FA                     u2005:	
  2522  03FA  1003               	clrc
  2523  03FB  0DF0               	rlf	___fladd@b,f
  2524  03FC  0DF1               	rlf	___fladd@b+1,f
  2525  03FD  0DF2               	rlf	___fladd@b+2,f
  2526  03FE  0DF3               	rlf	___fladd@b+3,f
  2527  03FF  0BA0               	decfsz	??___fladd,f
  2528  0400  2BFA               	goto	u2005
  2529  0401                     l1569:	
  2530  0401  1FFB               	btfss	___fladd@grs,7
  2531  0402  2C04               	goto	u2011
  2532  0403  2C05               	goto	u2010
  2533  0404                     u2011:	
  2534  0404  2C06               	goto	l477
  2535  0405                     u2010:	
  2536  0405                     l1571:	
  2537  0405  1470               	bsf	___fladd@b,0
  2538  0406                     l477:	
  2539  0406  1C7B               	btfss	___fladd@grs,0
  2540  0407  2C09               	goto	u2021
  2541  0408  2C0A               	goto	u2020
  2542  0409                     u2021:	
  2543  0409  2C0D               	goto	l1575
  2544  040A                     u2020:	
  2545  040A                     l1573:	
  2546  040A  1403               	setc
  2547  040B  0DFB               	rlf	___fladd@grs,f
  2548  040C  2C0F               	goto	l1577
  2549  040D                     l1575:	
  2550  040D  1003               	clrc
  2551  040E  0DFB               	rlf	___fladd@grs,f
  2552  040F                     l1577:	
  2553  040F  087A               	movf	___fladd@bexp,w
  2554  0410  1903               	btfsc	3,2
  2555  0411  2C13               	goto	u2031
  2556  0412  2C14               	goto	u2030
  2557  0413                     u2031:	
  2558  0413  2C16               	goto	l1581
  2559  0414                     u2030:	
  2560  0414                     l1579:	
  2561  0414  3001               	movlw	1
  2562  0415  02FA               	subwf	___fladd@bexp,f
  2563  0416                     l1581:	
  2564  0416  1FF2               	btfss	___fladd@b+2,7
  2565  0417  2C19               	goto	u2041
  2566  0418  2C1A               	goto	u2040
  2567  0419                     u2041:	
  2568  0419  2BF6               	goto	l1567
  2569  041A                     u2040:	
  2570  041A                     l1583:	
  2571  041A  01F9               	clrf	___fladd@aexp
  2572  041B                     l1585:	
  2573  041B  1FFB               	btfss	___fladd@grs,7
  2574  041C  2C1E               	goto	u2051
  2575  041D  2C1F               	goto	u2050
  2576  041E                     u2051:	
  2577  041E  2C2D               	goto	l1593
  2578  041F                     u2050:	
  2579  041F                     l1587:	
  2580  041F  087B               	movf	___fladd@grs,w
  2581  0420  397F               	andlw	127
  2582  0421  1903               	btfsc	3,2
  2583  0422  2C24               	goto	u2061
  2584  0423  2C25               	goto	u2060
  2585  0424                     u2061:	
  2586  0424  2C28               	goto	l483
  2587  0425                     u2060:	
  2588  0425                     l1589:	
  2589  0425  01F9               	clrf	___fladd@aexp
  2590  0426  0AF9               	incf	___fladd@aexp,f
  2591  0427  2C2D               	goto	l1593
  2592  0428                     l483:	
  2593  0428  1C70               	btfss	___fladd@b,0
  2594  0429  2C2B               	goto	u2071
  2595  042A  2C2C               	goto	u2070
  2596  042B                     u2071:	
  2597  042B  2C2D               	goto	l1593
  2598  042C                     u2070:	
  2599  042C  2C25               	goto	l1589
  2600  042D                     l1593:	
  2601  042D  0879               	movf	___fladd@aexp,w
  2602  042E  1903               	btfsc	3,2
  2603  042F  2C31               	goto	u2081
  2604  0430  2C32               	goto	u2080
  2605  0431                     u2081:	
  2606  0431  2C68               	goto	l486
  2607  0432                     u2080:	
  2608  0432                     l1595:	
  2609  0432  3001               	movlw	1
  2610  0433  07F0               	addwf	___fladd@b,f
  2611  0434  3000               	movlw	0
  2612  0435  1803               	skipnc
  2613  0436  3001               	movlw	1
  2614  0437  07F1               	addwf	___fladd@b+1,f
  2615  0438  3000               	movlw	0
  2616  0439  1803               	skipnc
  2617  043A  3001               	movlw	1
  2618  043B  07F2               	addwf	___fladd@b+2,f
  2619  043C  3000               	movlw	0
  2620  043D  1803               	skipnc
  2621  043E  3001               	movlw	1
  2622  043F  07F3               	addwf	___fladd@b+3,f
  2623  0440                     l1597:	
  2624  0440  1C73               	btfss	___fladd@b+3,0
  2625  0441  2C43               	goto	u2091
  2626  0442  2C44               	goto	u2090
  2627  0443                     u2091:	
  2628  0443  2C68               	goto	l486
  2629  0444                     u2090:	
  2630  0444                     l1599:	
  2631  0444  0870               	movf	___fladd@b,w
  2632  0445  1283               	bcf	3,5	;RP0=0, select bank0
  2633  0446  1303               	bcf	3,6	;RP1=0, select bank0
  2634  0447  00A0               	movwf	??___fladd
  2635  0448  0871               	movf	___fladd@b+1,w
  2636  0449  00A1               	movwf	??___fladd+1
  2637  044A  0872               	movf	___fladd@b+2,w
  2638  044B  00A2               	movwf	??___fladd+2
  2639  044C  0873               	movf	___fladd@b+3,w
  2640  044D  00A3               	movwf	??___fladd+3
  2641  044E  3001               	movlw	1
  2642  044F  00A4               	movwf	??___fladd+4
  2643  0450                     u2105:	
  2644  0450  0D23               	rlf	??___fladd+3,w
  2645  0451  0CA3               	rrf	??___fladd+3,f
  2646  0452  0CA2               	rrf	??___fladd+2,f
  2647  0453  0CA1               	rrf	??___fladd+1,f
  2648  0454  0CA0               	rrf	??___fladd,f
  2649  0455                     u2100:	
  2650  0455  0BA4               	decfsz	??___fladd+4,f
  2651  0456  2C50               	goto	u2105
  2652  0457  0823               	movf	??___fladd+3,w
  2653  0458  00F3               	movwf	___fladd@b+3
  2654  0459  0822               	movf	??___fladd+2,w
  2655  045A  00F2               	movwf	___fladd@b+2
  2656  045B  0821               	movf	??___fladd+1,w
  2657  045C  00F1               	movwf	___fladd@b+1
  2658  045D  0820               	movf	??___fladd,w
  2659  045E  00F0               	movwf	___fladd@b
  2660  045F  0A7A               	incf	___fladd@bexp,w
  2661  0460  1903               	btfsc	3,2
  2662  0461  2C63               	goto	u2111
  2663  0462  2C64               	goto	u2110
  2664  0463                     u2111:	
  2665  0463  2C68               	goto	l486
  2666  0464                     u2110:	
  2667  0464                     l1601:	
  2668  0464  3001               	movlw	1
  2669  0465  00A0               	movwf	??___fladd
  2670  0466  0820               	movf	??___fladd,w
  2671  0467  07FA               	addwf	___fladd@bexp,f
  2672  0468                     l486:	
  2673  0468  0A7A               	incf	___fladd@bexp,w
  2674  0469  1903               	btfsc	3,2
  2675  046A  2C6C               	goto	u2121
  2676  046B  2C6D               	goto	u2120
  2677  046C                     u2121:	
  2678  046C  2C72               	goto	l1605
  2679  046D                     u2120:	
  2680  046D                     l1603:	
  2681  046D  087A               	movf	___fladd@bexp,w
  2682  046E  1D03               	btfss	3,2
  2683  046F  2C71               	goto	u2131
  2684  0470  2C72               	goto	u2130
  2685  0471                     u2131:	
  2686  0471  2C80               	goto	l1611
  2687  0472                     u2130:	
  2688  0472                     l1605:	
  2689  0472  3000               	movlw	0
  2690  0473  00F3               	movwf	___fladd@b+3
  2691  0474  3000               	movlw	0
  2692  0475  00F2               	movwf	___fladd@b+2
  2693  0476  3000               	movlw	0
  2694  0477  00F1               	movwf	___fladd@b+1
  2695  0478  3000               	movlw	0
  2696  0479  00F0               	movwf	___fladd@b
  2697  047A                     l1607:	
  2698  047A  087A               	movf	___fladd@bexp,w
  2699  047B  1D03               	btfss	3,2
  2700  047C  2C7E               	goto	u2141
  2701  047D  2C7F               	goto	u2140
  2702  047E                     u2141:	
  2703  047E  2C80               	goto	l1611
  2704  047F                     u2140:	
  2705  047F                     l1609:	
  2706  047F  01F8               	clrf	___fladd@signs
  2707  0480                     l1611:	
  2708  0480  1C7A               	btfss	___fladd@bexp,0
  2709  0481  2C83               	goto	u2151
  2710  0482  2C84               	goto	u2150
  2711  0483                     u2151:	
  2712  0483  2C86               	goto	l1615
  2713  0484                     u2150:	
  2714  0484                     l1613:	
  2715  0484  17F2               	bsf	___fladd@b+2,7
  2716  0485  2C8C               	goto	l494
  2717  0486                     l1615:	
  2718  0486  307F               	movlw	127
  2719  0487  1283               	bcf	3,5	;RP0=0, select bank0
  2720  0488  1303               	bcf	3,6	;RP1=0, select bank0
  2721  0489  00A0               	movwf	??___fladd
  2722  048A  0820               	movf	??___fladd,w
  2723  048B  05F2               	andwf	___fladd@b+2,f
  2724  048C                     l494:	
  2725  048C  087A               	movf	___fladd@bexp,w
  2726  048D  1283               	bcf	3,5	;RP0=0, select bank0
  2727  048E  1303               	bcf	3,6	;RP1=0, select bank0
  2728  048F  00A0               	movwf	??___fladd
  2729  0490  1003               	clrc
  2730  0491  0C20               	rrf	??___fladd,w
  2731  0492  00A1               	movwf	??___fladd+1
  2732  0493  0821               	movf	??___fladd+1,w
  2733  0494  00F3               	movwf	___fladd@b+3
  2734  0495                     l1617:	
  2735  0495  1FF8               	btfss	___fladd@signs,7
  2736  0496  2C98               	goto	u2161
  2737  0497  2C99               	goto	u2160
  2738  0498                     u2161:	
  2739  0498  2C9A               	goto	l495
  2740  0499                     u2160:	
  2741  0499                     l1619:	
  2742  0499  17F3               	bsf	___fladd@b+3,7
  2743  049A                     l495:	
  2744  049A                     l465:	
  2745  049A  0008               	return
  2746  049B                     __end_of___fladd:	
  2747                           
  2748                           	psect	text8
  2749  049B                     __ptext8:	
  2750 ;; *************** function ___flmul *****************
  2751 ;; Defined at:
  2752 ;;		line 8 in file "G:\Softwares\XC8\pic\sources\c90\common\sprcmul.c"
  2753 ;; Parameters:    Size  Location     Type
  2754 ;;  b               4   39[BANK0 ] unsigned char 
  2755 ;;  a               4   43[BANK0 ] unsigned char 
  2756 ;; Auto vars:     Size  Location     Type
  2757 ;;  prod            4   59[BANK0 ] struct .
  2758 ;;  grs             4   53[BANK0 ] unsigned long 
  2759 ;;  temp            2   63[BANK0 ] struct .
  2760 ;;  bexp            1   58[BANK0 ] unsigned char 
  2761 ;;  aexp            1   57[BANK0 ] unsigned char 
  2762 ;;  sign            1   52[BANK0 ] unsigned char 
  2763 ;; Return value:  Size  Location     Type
  2764 ;;                  4   39[BANK0 ] unsigned char 
  2765 ;; Registers used:
  2766 ;;		wreg, status,2, status,0, btemp+1, pclath, cstack
  2767 ;; Tracked objects:
  2768 ;;		On entry : 0/0
  2769 ;;		On exit  : 0/0
  2770 ;;		Unchanged: 0/0
  2771 ;; Data sizes:     COMMON   BANK0   BANK1   BANK3   BANK2
  2772 ;;      Params:         0       8       0       0       0
  2773 ;;      Locals:         0      13       0       0       0
  2774 ;;      Temps:          0       5       0       0       0
  2775 ;;      Totals:         0      26       0       0       0
  2776 ;;Total ram usage:       26 bytes
  2777 ;; Hardware stack levels used:    1
  2778 ;; Hardware stack levels required when called:    1
  2779 ;; This function calls:
  2780 ;;		__Umul8_16
  2781 ;; This function is called by:
  2782 ;;		_Lcd_Print_Float
  2783 ;;		_main
  2784 ;; This function uses a non-reentrant model
  2785 ;;
  2786                           
  2787                           
  2788                           ;psect for function ___flmul
  2789  049B                     ___flmul:	
  2790  049B                     l1705:	
  2791                           ;incstack = 0
  2792                           ; Regs used in ___flmul: [wreg+status,2+status,0+btemp+1+pclath+cstack]
  2793                           
  2794  049B  1283               	bcf	3,5	;RP0=0, select bank0
  2795  049C  1303               	bcf	3,6	;RP1=0, select bank0
  2796  049D  084A               	movf	___flmul@b+3,w
  2797  049E  3980               	andlw	128
  2798  049F  00CF               	movwf	??___flmul
  2799  04A0  084F               	movf	??___flmul,w
  2800  04A1  00D4               	movwf	___flmul@sign
  2801  04A2                     l1707:	
  2802  04A2  084A               	movf	___flmul@b+3,w
  2803  04A3  00CF               	movwf	??___flmul
  2804  04A4  074F               	addwf	??___flmul,w
  2805  04A5  00D0               	movwf	??___flmul+1
  2806  04A6  0850               	movf	??___flmul+1,w
  2807  04A7  00DA               	movwf	___flmul@bexp
  2808  04A8                     l1709:	
  2809  04A8  1FC9               	btfss	___flmul@b+2,7
  2810  04A9  2CAB               	goto	u2321
  2811  04AA  2CAC               	goto	u2320
  2812  04AB                     u2321:	
  2813  04AB  2CAD               	goto	l1713
  2814  04AC                     u2320:	
  2815  04AC                     l1711:	
  2816  04AC  145A               	bsf	___flmul@bexp,0
  2817  04AD                     l1713:	
  2818  04AD  085A               	movf	___flmul@bexp,w
  2819  04AE  1903               	btfsc	3,2
  2820  04AF  2CB1               	goto	u2331
  2821  04B0  2CB2               	goto	u2330
  2822  04B1                     u2331:	
  2823  04B1  2CC1               	goto	l1721
  2824  04B2                     u2330:	
  2825  04B2                     l1715:	
  2826  04B2  0A5A               	incf	___flmul@bexp,w
  2827  04B3  1D03               	btfss	3,2
  2828  04B4  2CB6               	goto	u2341
  2829  04B5  2CB7               	goto	u2340
  2830  04B6                     u2341:	
  2831  04B6  2CBF               	goto	l1719
  2832  04B7                     u2340:	
  2833  04B7                     l1717:	
  2834  04B7  3000               	movlw	0
  2835  04B8  00CA               	movwf	___flmul@b+3
  2836  04B9  3000               	movlw	0
  2837  04BA  00C9               	movwf	___flmul@b+2
  2838  04BB  3000               	movlw	0
  2839  04BC  00C8               	movwf	___flmul@b+1
  2840  04BD  3000               	movlw	0
  2841  04BE  00C7               	movwf	___flmul@b
  2842  04BF                     l1719:	
  2843  04BF  17C9               	bsf	___flmul@b+2,7
  2844  04C0  2CC9               	goto	l1723
  2845  04C1                     l1721:	
  2846  04C1  3000               	movlw	0
  2847  04C2  00CA               	movwf	___flmul@b+3
  2848  04C3  3000               	movlw	0
  2849  04C4  00C9               	movwf	___flmul@b+2
  2850  04C5  3000               	movlw	0
  2851  04C6  00C8               	movwf	___flmul@b+1
  2852  04C7  3000               	movlw	0
  2853  04C8  00C7               	movwf	___flmul@b
  2854  04C9                     l1723:	
  2855  04C9  084E               	movf	___flmul@a+3,w
  2856  04CA  3980               	andlw	128
  2857  04CB  00CF               	movwf	??___flmul
  2858  04CC  084F               	movf	??___flmul,w
  2859  04CD  06D4               	xorwf	___flmul@sign,f
  2860  04CE                     l1725:	
  2861  04CE  084E               	movf	___flmul@a+3,w
  2862  04CF  00CF               	movwf	??___flmul
  2863  04D0  074F               	addwf	??___flmul,w
  2864  04D1  00D0               	movwf	??___flmul+1
  2865  04D2  0850               	movf	??___flmul+1,w
  2866  04D3  00D9               	movwf	___flmul@aexp
  2867  04D4                     l1727:	
  2868  04D4  1FCD               	btfss	___flmul@a+2,7
  2869  04D5  2CD7               	goto	u2351
  2870  04D6  2CD8               	goto	u2350
  2871  04D7                     u2351:	
  2872  04D7  2CD9               	goto	l1731
  2873  04D8                     u2350:	
  2874  04D8                     l1729:	
  2875  04D8  1459               	bsf	___flmul@aexp,0
  2876  04D9                     l1731:	
  2877  04D9  0859               	movf	___flmul@aexp,w
  2878  04DA  1903               	btfsc	3,2
  2879  04DB  2CDD               	goto	u2361
  2880  04DC  2CDE               	goto	u2360
  2881  04DD                     u2361:	
  2882  04DD  2CED               	goto	l1739
  2883  04DE                     u2360:	
  2884  04DE                     l1733:	
  2885  04DE  0A59               	incf	___flmul@aexp,w
  2886  04DF  1D03               	btfss	3,2
  2887  04E0  2CE2               	goto	u2371
  2888  04E1  2CE3               	goto	u2370
  2889  04E2                     u2371:	
  2890  04E2  2CEB               	goto	l1737
  2891  04E3                     u2370:	
  2892  04E3                     l1735:	
  2893  04E3  3000               	movlw	0
  2894  04E4  00CE               	movwf	___flmul@a+3
  2895  04E5  3000               	movlw	0
  2896  04E6  00CD               	movwf	___flmul@a+2
  2897  04E7  3000               	movlw	0
  2898  04E8  00CC               	movwf	___flmul@a+1
  2899  04E9  3000               	movlw	0
  2900  04EA  00CB               	movwf	___flmul@a
  2901  04EB                     l1737:	
  2902  04EB  17CD               	bsf	___flmul@a+2,7
  2903  04EC  2CF5               	goto	l1741
  2904  04ED                     l1739:	
  2905  04ED  3000               	movlw	0
  2906  04EE  00CE               	movwf	___flmul@a+3
  2907  04EF  3000               	movlw	0
  2908  04F0  00CD               	movwf	___flmul@a+2
  2909  04F1  3000               	movlw	0
  2910  04F2  00CC               	movwf	___flmul@a+1
  2911  04F3  3000               	movlw	0
  2912  04F4  00CB               	movwf	___flmul@a
  2913  04F5                     l1741:	
  2914  04F5  0859               	movf	___flmul@aexp,w
  2915  04F6  1903               	btfsc	3,2
  2916  04F7  2CF9               	goto	u2381
  2917  04F8  2CFA               	goto	u2380
  2918  04F9                     u2381:	
  2919  04F9  2CFF               	goto	l1745
  2920  04FA                     u2380:	
  2921  04FA                     l1743:	
  2922  04FA  085A               	movf	___flmul@bexp,w
  2923  04FB  1D03               	btfss	3,2
  2924  04FC  2CFE               	goto	u2391
  2925  04FD  2CFF               	goto	u2390
  2926  04FE                     u2391:	
  2927  04FE  2D08               	goto	l1749
  2928  04FF                     u2390:	
  2929  04FF                     l1745:	
  2930  04FF  3000               	movlw	0
  2931  0500  00CA               	movwf	?___flmul+3
  2932  0501  3000               	movlw	0
  2933  0502  00C9               	movwf	?___flmul+2
  2934  0503  3000               	movlw	0
  2935  0504  00C8               	movwf	?___flmul+1
  2936  0505  3000               	movlw	0
  2937  0506  00C7               	movwf	?___flmul
  2938  0507  2FFB               	goto	l548
  2939  0508                     l1749:	
  2940  0508  0847               	movf	___flmul@b,w
  2941  0509  00CF               	movwf	??___flmul
  2942  050A  084F               	movf	??___flmul,w
  2943  050B  00F0               	movwf	__Umul8_16@multiplicand
  2944  050C  084D               	movf	___flmul@a+2,w
  2945  050D  120A  158A  24D5  120A  118A  	fcall	__Umul8_16
  2946  0512  0871               	movf	?__Umul8_16+1,w
  2947  0513  1283               	bcf	3,5	;RP0=0, select bank0
  2948  0514  1303               	bcf	3,6	;RP1=0, select bank0
  2949  0515  00E0               	movwf	___flmul@temp+1
  2950  0516  0870               	movf	?__Umul8_16,w
  2951  0517  00DF               	movwf	___flmul@temp
  2952  0518                     l1751:	
  2953  0518  085F               	movf	___flmul@temp,w
  2954  0519  00CF               	movwf	??___flmul
  2955  051A  01D0               	clrf	??___flmul+1
  2956  051B  01D1               	clrf	??___flmul+2
  2957  051C  01D2               	clrf	??___flmul+3
  2958  051D  0852               	movf	??___flmul+3,w
  2959  051E  00D8               	movwf	___flmul@grs+3
  2960  051F  0851               	movf	??___flmul+2,w
  2961  0520  00D7               	movwf	___flmul@grs+2
  2962  0521  0850               	movf	??___flmul+1,w
  2963  0522  00D6               	movwf	___flmul@grs+1
  2964  0523  084F               	movf	??___flmul,w
  2965  0524  00D5               	movwf	___flmul@grs
  2966  0525                     l1753:	
  2967  0525  0860               	movf	___flmul@temp+1,w
  2968  0526  00CF               	movwf	??___flmul
  2969  0527  01D0               	clrf	??___flmul+1
  2970  0528  01D1               	clrf	??___flmul+2
  2971  0529  01D2               	clrf	??___flmul+3
  2972  052A  0852               	movf	??___flmul+3,w
  2973  052B  00DE               	movwf	___flmul@prod+3
  2974  052C  0851               	movf	??___flmul+2,w
  2975  052D  00DD               	movwf	___flmul@prod+2
  2976  052E  0850               	movf	??___flmul+1,w
  2977  052F  00DC               	movwf	___flmul@prod+1
  2978  0530  084F               	movf	??___flmul,w
  2979  0531  00DB               	movwf	___flmul@prod
  2980  0532  0848               	movf	___flmul@b+1,w
  2981  0533  00CF               	movwf	??___flmul
  2982  0534  084F               	movf	??___flmul,w
  2983  0535  00F0               	movwf	__Umul8_16@multiplicand
  2984  0536  084C               	movf	___flmul@a+1,w
  2985  0537  120A  158A  24D5  120A  118A  	fcall	__Umul8_16
  2986  053C  0871               	movf	?__Umul8_16+1,w
  2987  053D  1283               	bcf	3,5	;RP0=0, select bank0
  2988  053E  1303               	bcf	3,6	;RP1=0, select bank0
  2989  053F  00E0               	movwf	___flmul@temp+1
  2990  0540  0870               	movf	?__Umul8_16,w
  2991  0541  00DF               	movwf	___flmul@temp
  2992  0542                     l1755:	
  2993  0542  085F               	movf	___flmul@temp,w
  2994  0543  00CF               	movwf	??___flmul
  2995  0544  01D0               	clrf	??___flmul+1
  2996  0545  01D1               	clrf	??___flmul+2
  2997  0546  01D2               	clrf	??___flmul+3
  2998  0547  084F               	movf	??___flmul,w
  2999  0548  07D5               	addwf	___flmul@grs,f
  3000  0549  0850               	movf	??___flmul+1,w
  3001  054A  1103               	clrz
  3002  054B  1803               	skipnc
  3003  054C  3E01               	addlw	1
  3004  054D  1903               	skipnz
  3005  054E  2D50               	goto	u2401
  3006  054F  07D6               	addwf	___flmul@grs+1,f
  3007  0550                     u2401:	
  3008  0550  0851               	movf	??___flmul+2,w
  3009  0551  1103               	clrz
  3010  0552  1803               	skipnc
  3011  0553  3E01               	addlw	1
  3012  0554  1903               	skipnz
  3013  0555  2D57               	goto	u2402
  3014  0556  07D7               	addwf	___flmul@grs+2,f
  3015  0557                     u2402:	
  3016  0557  0852               	movf	??___flmul+3,w
  3017  0558  1103               	clrz
  3018  0559  1803               	skipnc
  3019  055A  3E01               	addlw	1
  3020  055B  1903               	skipnz
  3021  055C  2D5E               	goto	u2403
  3022  055D  07D8               	addwf	___flmul@grs+3,f
  3023  055E                     u2403:	
  3024  055E                     l1757:	
  3025  055E  0860               	movf	___flmul@temp+1,w
  3026  055F  00CF               	movwf	??___flmul
  3027  0560  01D0               	clrf	??___flmul+1
  3028  0561  01D1               	clrf	??___flmul+2
  3029  0562  01D2               	clrf	??___flmul+3
  3030  0563  084F               	movf	??___flmul,w
  3031  0564  07DB               	addwf	___flmul@prod,f
  3032  0565  0850               	movf	??___flmul+1,w
  3033  0566  1103               	clrz
  3034  0567  1803               	skipnc
  3035  0568  3E01               	addlw	1
  3036  0569  1903               	skipnz
  3037  056A  2D6C               	goto	u2411
  3038  056B  07DC               	addwf	___flmul@prod+1,f
  3039  056C                     u2411:	
  3040  056C  0851               	movf	??___flmul+2,w
  3041  056D  1103               	clrz
  3042  056E  1803               	skipnc
  3043  056F  3E01               	addlw	1
  3044  0570  1903               	skipnz
  3045  0571  2D73               	goto	u2412
  3046  0572  07DD               	addwf	___flmul@prod+2,f
  3047  0573                     u2412:	
  3048  0573  0852               	movf	??___flmul+3,w
  3049  0574  1103               	clrz
  3050  0575  1803               	skipnc
  3051  0576  3E01               	addlw	1
  3052  0577  1903               	skipnz
  3053  0578  2D7A               	goto	u2413
  3054  0579  07DE               	addwf	___flmul@prod+3,f
  3055  057A                     u2413:	
  3056  057A  0849               	movf	___flmul@b+2,w
  3057  057B  00CF               	movwf	??___flmul
  3058  057C  084F               	movf	??___flmul,w
  3059  057D  00F0               	movwf	__Umul8_16@multiplicand
  3060  057E  084B               	movf	___flmul@a,w
  3061  057F  120A  158A  24D5  120A  118A  	fcall	__Umul8_16
  3062  0584  0871               	movf	?__Umul8_16+1,w
  3063  0585  1283               	bcf	3,5	;RP0=0, select bank0
  3064  0586  1303               	bcf	3,6	;RP1=0, select bank0
  3065  0587  00E0               	movwf	___flmul@temp+1
  3066  0588  0870               	movf	?__Umul8_16,w
  3067  0589  00DF               	movwf	___flmul@temp
  3068  058A                     l1759:	
  3069  058A  085F               	movf	___flmul@temp,w
  3070  058B  00CF               	movwf	??___flmul
  3071  058C  01D0               	clrf	??___flmul+1
  3072  058D  01D1               	clrf	??___flmul+2
  3073  058E  01D2               	clrf	??___flmul+3
  3074  058F  084F               	movf	??___flmul,w
  3075  0590  07D5               	addwf	___flmul@grs,f
  3076  0591  0850               	movf	??___flmul+1,w
  3077  0592  1103               	clrz
  3078  0593  1803               	skipnc
  3079  0594  3E01               	addlw	1
  3080  0595  1903               	skipnz
  3081  0596  2D98               	goto	u2421
  3082  0597  07D6               	addwf	___flmul@grs+1,f
  3083  0598                     u2421:	
  3084  0598  0851               	movf	??___flmul+2,w
  3085  0599  1103               	clrz
  3086  059A  1803               	skipnc
  3087  059B  3E01               	addlw	1
  3088  059C  1903               	skipnz
  3089  059D  2D9F               	goto	u2422
  3090  059E  07D7               	addwf	___flmul@grs+2,f
  3091  059F                     u2422:	
  3092  059F  0852               	movf	??___flmul+3,w
  3093  05A0  1103               	clrz
  3094  05A1  1803               	skipnc
  3095  05A2  3E01               	addlw	1
  3096  05A3  1903               	skipnz
  3097  05A4  2DA6               	goto	u2423
  3098  05A5  07D8               	addwf	___flmul@grs+3,f
  3099  05A6                     u2423:	
  3100  05A6                     l1761:	
  3101  05A6  0860               	movf	___flmul@temp+1,w
  3102  05A7  00CF               	movwf	??___flmul
  3103  05A8  01D0               	clrf	??___flmul+1
  3104  05A9  01D1               	clrf	??___flmul+2
  3105  05AA  01D2               	clrf	??___flmul+3
  3106  05AB  084F               	movf	??___flmul,w
  3107  05AC  07DB               	addwf	___flmul@prod,f
  3108  05AD  0850               	movf	??___flmul+1,w
  3109  05AE  1103               	clrz
  3110  05AF  1803               	skipnc
  3111  05B0  3E01               	addlw	1
  3112  05B1  1903               	skipnz
  3113  05B2  2DB4               	goto	u2431
  3114  05B3  07DC               	addwf	___flmul@prod+1,f
  3115  05B4                     u2431:	
  3116  05B4  0851               	movf	??___flmul+2,w
  3117  05B5  1103               	clrz
  3118  05B6  1803               	skipnc
  3119  05B7  3E01               	addlw	1
  3120  05B8  1903               	skipnz
  3121  05B9  2DBB               	goto	u2432
  3122  05BA  07DD               	addwf	___flmul@prod+2,f
  3123  05BB                     u2432:	
  3124  05BB  0852               	movf	??___flmul+3,w
  3125  05BC  1103               	clrz
  3126  05BD  1803               	skipnc
  3127  05BE  3E01               	addlw	1
  3128  05BF  1903               	skipnz
  3129  05C0  2DC2               	goto	u2433
  3130  05C1  07DE               	addwf	___flmul@prod+3,f
  3131  05C2                     u2433:	
  3132  05C2                     l1763:	
  3133  05C2  3008               	movlw	8
  3134  05C3  00CF               	movwf	??___flmul
  3135  05C4                     u2445:	
  3136  05C4  1003               	clrc
  3137  05C5  0DD5               	rlf	___flmul@grs,f
  3138  05C6  0DD6               	rlf	___flmul@grs+1,f
  3139  05C7  0DD7               	rlf	___flmul@grs+2,f
  3140  05C8  0DD8               	rlf	___flmul@grs+3,f
  3141  05C9  0BCF               	decfsz	??___flmul,f
  3142  05CA  2DC4               	goto	u2445
  3143  05CB                     l1765:	
  3144  05CB  0848               	movf	___flmul@b+1,w
  3145  05CC  00CF               	movwf	??___flmul
  3146  05CD  084F               	movf	??___flmul,w
  3147  05CE  00F0               	movwf	__Umul8_16@multiplicand
  3148  05CF  084B               	movf	___flmul@a,w
  3149  05D0  120A  158A  24D5  120A  118A  	fcall	__Umul8_16
  3150  05D5  0871               	movf	?__Umul8_16+1,w
  3151  05D6  1283               	bcf	3,5	;RP0=0, select bank0
  3152  05D7  1303               	bcf	3,6	;RP1=0, select bank0
  3153  05D8  00E0               	movwf	___flmul@temp+1
  3154  05D9  0870               	movf	?__Umul8_16,w
  3155  05DA  00DF               	movwf	___flmul@temp
  3156  05DB                     l1767:	
  3157  05DB  085F               	movf	___flmul@temp,w
  3158  05DC  00CF               	movwf	??___flmul
  3159  05DD  0860               	movf	___flmul@temp+1,w
  3160  05DE  00D0               	movwf	??___flmul+1
  3161  05DF  01D1               	clrf	??___flmul+2
  3162  05E0  01D2               	clrf	??___flmul+3
  3163  05E1  084F               	movf	??___flmul,w
  3164  05E2  07D5               	addwf	___flmul@grs,f
  3165  05E3  0850               	movf	??___flmul+1,w
  3166  05E4  1103               	clrz
  3167  05E5  1803               	skipnc
  3168  05E6  3E01               	addlw	1
  3169  05E7  1903               	skipnz
  3170  05E8  2DEA               	goto	u2451
  3171  05E9  07D6               	addwf	___flmul@grs+1,f
  3172  05EA                     u2451:	
  3173  05EA  0851               	movf	??___flmul+2,w
  3174  05EB  1103               	clrz
  3175  05EC  1803               	skipnc
  3176  05ED  3E01               	addlw	1
  3177  05EE  1903               	skipnz
  3178  05EF  2DF1               	goto	u2452
  3179  05F0  07D7               	addwf	___flmul@grs+2,f
  3180  05F1                     u2452:	
  3181  05F1  0852               	movf	??___flmul+3,w
  3182  05F2  1103               	clrz
  3183  05F3  1803               	skipnc
  3184  05F4  3E01               	addlw	1
  3185  05F5  1903               	skipnz
  3186  05F6  2DF8               	goto	u2453
  3187  05F7  07D8               	addwf	___flmul@grs+3,f
  3188  05F8                     u2453:	
  3189  05F8                     l1769:	
  3190  05F8  0847               	movf	___flmul@b,w
  3191  05F9  00CF               	movwf	??___flmul
  3192  05FA  084F               	movf	??___flmul,w
  3193  05FB  00F0               	movwf	__Umul8_16@multiplicand
  3194  05FC  084C               	movf	___flmul@a+1,w
  3195  05FD  120A  158A  24D5  120A  118A  	fcall	__Umul8_16
  3196  0602  0871               	movf	?__Umul8_16+1,w
  3197  0603  1283               	bcf	3,5	;RP0=0, select bank0
  3198  0604  1303               	bcf	3,6	;RP1=0, select bank0
  3199  0605  00E0               	movwf	___flmul@temp+1
  3200  0606  0870               	movf	?__Umul8_16,w
  3201  0607  00DF               	movwf	___flmul@temp
  3202  0608                     l1771:	
  3203  0608  085F               	movf	___flmul@temp,w
  3204  0609  00CF               	movwf	??___flmul
  3205  060A  0860               	movf	___flmul@temp+1,w
  3206  060B  00D0               	movwf	??___flmul+1
  3207  060C  01D1               	clrf	??___flmul+2
  3208  060D  01D2               	clrf	??___flmul+3
  3209  060E  084F               	movf	??___flmul,w
  3210  060F  07D5               	addwf	___flmul@grs,f
  3211  0610  0850               	movf	??___flmul+1,w
  3212  0611  1103               	clrz
  3213  0612  1803               	skipnc
  3214  0613  3E01               	addlw	1
  3215  0614  1903               	skipnz
  3216  0615  2E17               	goto	u2461
  3217  0616  07D6               	addwf	___flmul@grs+1,f
  3218  0617                     u2461:	
  3219  0617  0851               	movf	??___flmul+2,w
  3220  0618  1103               	clrz
  3221  0619  1803               	skipnc
  3222  061A  3E01               	addlw	1
  3223  061B  1903               	skipnz
  3224  061C  2E1E               	goto	u2462
  3225  061D  07D7               	addwf	___flmul@grs+2,f
  3226  061E                     u2462:	
  3227  061E  0852               	movf	??___flmul+3,w
  3228  061F  1103               	clrz
  3229  0620  1803               	skipnc
  3230  0621  3E01               	addlw	1
  3231  0622  1903               	skipnz
  3232  0623  2E25               	goto	u2463
  3233  0624  07D8               	addwf	___flmul@grs+3,f
  3234  0625                     u2463:	
  3235  0625                     l1773:	
  3236  0625  3008               	movlw	8
  3237  0626  00CF               	movwf	??___flmul
  3238  0627                     u2475:	
  3239  0627  1003               	clrc
  3240  0628  0DD5               	rlf	___flmul@grs,f
  3241  0629  0DD6               	rlf	___flmul@grs+1,f
  3242  062A  0DD7               	rlf	___flmul@grs+2,f
  3243  062B  0DD8               	rlf	___flmul@grs+3,f
  3244  062C  0BCF               	decfsz	??___flmul,f
  3245  062D  2E27               	goto	u2475
  3246  062E  0847               	movf	___flmul@b,w
  3247  062F  00CF               	movwf	??___flmul
  3248  0630  084F               	movf	??___flmul,w
  3249  0631  00F0               	movwf	__Umul8_16@multiplicand
  3250  0632  084B               	movf	___flmul@a,w
  3251  0633  120A  158A  24D5  120A  118A  	fcall	__Umul8_16
  3252  0638  0871               	movf	?__Umul8_16+1,w
  3253  0639  1283               	bcf	3,5	;RP0=0, select bank0
  3254  063A  1303               	bcf	3,6	;RP1=0, select bank0
  3255  063B  00E0               	movwf	___flmul@temp+1
  3256  063C  0870               	movf	?__Umul8_16,w
  3257  063D  00DF               	movwf	___flmul@temp
  3258  063E                     l1775:	
  3259  063E  085F               	movf	___flmul@temp,w
  3260  063F  00CF               	movwf	??___flmul
  3261  0640  0860               	movf	___flmul@temp+1,w
  3262  0641  00D0               	movwf	??___flmul+1
  3263  0642  01D1               	clrf	??___flmul+2
  3264  0643  01D2               	clrf	??___flmul+3
  3265  0644  084F               	movf	??___flmul,w
  3266  0645  07D5               	addwf	___flmul@grs,f
  3267  0646  0850               	movf	??___flmul+1,w
  3268  0647  1103               	clrz
  3269  0648  1803               	skipnc
  3270  0649  3E01               	addlw	1
  3271  064A  1903               	skipnz
  3272  064B  2E4D               	goto	u2481
  3273  064C  07D6               	addwf	___flmul@grs+1,f
  3274  064D                     u2481:	
  3275  064D  0851               	movf	??___flmul+2,w
  3276  064E  1103               	clrz
  3277  064F  1803               	skipnc
  3278  0650  3E01               	addlw	1
  3279  0651  1903               	skipnz
  3280  0652  2E54               	goto	u2482
  3281  0653  07D7               	addwf	___flmul@grs+2,f
  3282  0654                     u2482:	
  3283  0654  0852               	movf	??___flmul+3,w
  3284  0655  1103               	clrz
  3285  0656  1803               	skipnc
  3286  0657  3E01               	addlw	1
  3287  0658  1903               	skipnz
  3288  0659  2E5B               	goto	u2483
  3289  065A  07D8               	addwf	___flmul@grs+3,f
  3290  065B                     u2483:	
  3291  065B                     l1777:	
  3292  065B  0848               	movf	___flmul@b+1,w
  3293  065C  00CF               	movwf	??___flmul
  3294  065D  084F               	movf	??___flmul,w
  3295  065E  00F0               	movwf	__Umul8_16@multiplicand
  3296  065F  084D               	movf	___flmul@a+2,w
  3297  0660  120A  158A  24D5  120A  118A  	fcall	__Umul8_16
  3298  0665  0871               	movf	?__Umul8_16+1,w
  3299  0666  1283               	bcf	3,5	;RP0=0, select bank0
  3300  0667  1303               	bcf	3,6	;RP1=0, select bank0
  3301  0668  00E0               	movwf	___flmul@temp+1
  3302  0669  0870               	movf	?__Umul8_16,w
  3303  066A  00DF               	movwf	___flmul@temp
  3304  066B  085F               	movf	___flmul@temp,w
  3305  066C  00CF               	movwf	??___flmul
  3306  066D  0860               	movf	___flmul@temp+1,w
  3307  066E  00D0               	movwf	??___flmul+1
  3308  066F  01D1               	clrf	??___flmul+2
  3309  0670  01D2               	clrf	??___flmul+3
  3310  0671  084F               	movf	??___flmul,w
  3311  0672  07DB               	addwf	___flmul@prod,f
  3312  0673  0850               	movf	??___flmul+1,w
  3313  0674  1103               	clrz
  3314  0675  1803               	skipnc
  3315  0676  3E01               	addlw	1
  3316  0677  1903               	skipnz
  3317  0678  2E7A               	goto	u2491
  3318  0679  07DC               	addwf	___flmul@prod+1,f
  3319  067A                     u2491:	
  3320  067A  0851               	movf	??___flmul+2,w
  3321  067B  1103               	clrz
  3322  067C  1803               	skipnc
  3323  067D  3E01               	addlw	1
  3324  067E  1903               	skipnz
  3325  067F  2E81               	goto	u2492
  3326  0680  07DD               	addwf	___flmul@prod+2,f
  3327  0681                     u2492:	
  3328  0681  0852               	movf	??___flmul+3,w
  3329  0682  1103               	clrz
  3330  0683  1803               	skipnc
  3331  0684  3E01               	addlw	1
  3332  0685  1903               	skipnz
  3333  0686  2E88               	goto	u2493
  3334  0687  07DE               	addwf	___flmul@prod+3,f
  3335  0688                     u2493:	
  3336  0688                     l1779:	
  3337  0688  0849               	movf	___flmul@b+2,w
  3338  0689  00CF               	movwf	??___flmul
  3339  068A  084F               	movf	??___flmul,w
  3340  068B  00F0               	movwf	__Umul8_16@multiplicand
  3341  068C  084C               	movf	___flmul@a+1,w
  3342  068D  120A  158A  24D5  120A  118A  	fcall	__Umul8_16
  3343  0692  0871               	movf	?__Umul8_16+1,w
  3344  0693  1283               	bcf	3,5	;RP0=0, select bank0
  3345  0694  1303               	bcf	3,6	;RP1=0, select bank0
  3346  0695  00E0               	movwf	___flmul@temp+1
  3347  0696  0870               	movf	?__Umul8_16,w
  3348  0697  00DF               	movwf	___flmul@temp
  3349  0698                     l1781:	
  3350  0698  085F               	movf	___flmul@temp,w
  3351  0699  00CF               	movwf	??___flmul
  3352  069A  0860               	movf	___flmul@temp+1,w
  3353  069B  00D0               	movwf	??___flmul+1
  3354  069C  01D1               	clrf	??___flmul+2
  3355  069D  01D2               	clrf	??___flmul+3
  3356  069E  084F               	movf	??___flmul,w
  3357  069F  07DB               	addwf	___flmul@prod,f
  3358  06A0  0850               	movf	??___flmul+1,w
  3359  06A1  1103               	clrz
  3360  06A2  1803               	skipnc
  3361  06A3  3E01               	addlw	1
  3362  06A4  1903               	skipnz
  3363  06A5  2EA7               	goto	u2501
  3364  06A6  07DC               	addwf	___flmul@prod+1,f
  3365  06A7                     u2501:	
  3366  06A7  0851               	movf	??___flmul+2,w
  3367  06A8  1103               	clrz
  3368  06A9  1803               	skipnc
  3369  06AA  3E01               	addlw	1
  3370  06AB  1903               	skipnz
  3371  06AC  2EAE               	goto	u2502
  3372  06AD  07DD               	addwf	___flmul@prod+2,f
  3373  06AE                     u2502:	
  3374  06AE  0852               	movf	??___flmul+3,w
  3375  06AF  1103               	clrz
  3376  06B0  1803               	skipnc
  3377  06B1  3E01               	addlw	1
  3378  06B2  1903               	skipnz
  3379  06B3  2EB5               	goto	u2503
  3380  06B4  07DE               	addwf	___flmul@prod+3,f
  3381  06B5                     u2503:	
  3382  06B5  0849               	movf	___flmul@b+2,w
  3383  06B6  00CF               	movwf	??___flmul
  3384  06B7  084F               	movf	??___flmul,w
  3385  06B8  00F0               	movwf	__Umul8_16@multiplicand
  3386  06B9  084D               	movf	___flmul@a+2,w
  3387  06BA  120A  158A  24D5  120A  118A  	fcall	__Umul8_16
  3388  06BF  0871               	movf	?__Umul8_16+1,w
  3389  06C0  1283               	bcf	3,5	;RP0=0, select bank0
  3390  06C1  1303               	bcf	3,6	;RP1=0, select bank0
  3391  06C2  00E0               	movwf	___flmul@temp+1
  3392  06C3  0870               	movf	?__Umul8_16,w
  3393  06C4  00DF               	movwf	___flmul@temp
  3394  06C5                     l1783:	
  3395  06C5  085F               	movf	___flmul@temp,w
  3396  06C6  00CF               	movwf	??___flmul
  3397  06C7  0860               	movf	___flmul@temp+1,w
  3398  06C8  00D0               	movwf	??___flmul+1
  3399  06C9  01D1               	clrf	??___flmul+2
  3400  06CA  01D2               	clrf	??___flmul+3
  3401  06CB  3008               	movlw	8
  3402  06CC                     u2515:	
  3403  06CC  1003               	clrc
  3404  06CD  0DCF               	rlf	??___flmul,f
  3405  06CE  0DD0               	rlf	??___flmul+1,f
  3406  06CF  0DD1               	rlf	??___flmul+2,f
  3407  06D0  0DD2               	rlf	??___flmul+3,f
  3408  06D1                     u2510:	
  3409  06D1  3EFF               	addlw	-1
  3410  06D2  1D03               	skipz
  3411  06D3  2ECC               	goto	u2515
  3412  06D4  084F               	movf	??___flmul,w
  3413  06D5  07DB               	addwf	___flmul@prod,f
  3414  06D6  0850               	movf	??___flmul+1,w
  3415  06D7  1103               	clrz
  3416  06D8  1803               	skipnc
  3417  06D9  3E01               	addlw	1
  3418  06DA  1903               	skipnz
  3419  06DB  2EDD               	goto	u2521
  3420  06DC  07DC               	addwf	___flmul@prod+1,f
  3421  06DD                     u2521:	
  3422  06DD  0851               	movf	??___flmul+2,w
  3423  06DE  1103               	clrz
  3424  06DF  1803               	skipnc
  3425  06E0  3E01               	addlw	1
  3426  06E1  1903               	skipnz
  3427  06E2  2EE4               	goto	u2522
  3428  06E3  07DD               	addwf	___flmul@prod+2,f
  3429  06E4                     u2522:	
  3430  06E4  0852               	movf	??___flmul+3,w
  3431  06E5  1103               	clrz
  3432  06E6  1803               	skipnc
  3433  06E7  3E01               	addlw	1
  3434  06E8  1903               	skipnz
  3435  06E9  2EEB               	goto	u2523
  3436  06EA  07DE               	addwf	___flmul@prod+3,f
  3437  06EB                     u2523:	
  3438  06EB                     l1785:	
  3439  06EB  0855               	movf	___flmul@grs,w
  3440  06EC  00CF               	movwf	??___flmul
  3441  06ED  0856               	movf	___flmul@grs+1,w
  3442  06EE  00D0               	movwf	??___flmul+1
  3443  06EF  0857               	movf	___flmul@grs+2,w
  3444  06F0  00D1               	movwf	??___flmul+2
  3445  06F1  0858               	movf	___flmul@grs+3,w
  3446  06F2  00D2               	movwf	??___flmul+3
  3447  06F3  3018               	movlw	24
  3448  06F4                     u2535:	
  3449  06F4  1003               	clrc
  3450  06F5  0CD2               	rrf	??___flmul+3,f
  3451  06F6  0CD1               	rrf	??___flmul+2,f
  3452  06F7  0CD0               	rrf	??___flmul+1,f
  3453  06F8  0CCF               	rrf	??___flmul,f
  3454  06F9                     u2530:	
  3455  06F9  3EFF               	addlw	-1
  3456  06FA  1D03               	skipz
  3457  06FB  2EF4               	goto	u2535
  3458  06FC  084F               	movf	??___flmul,w
  3459  06FD  07DB               	addwf	___flmul@prod,f
  3460  06FE  0850               	movf	??___flmul+1,w
  3461  06FF  1103               	clrz
  3462  0700  1803               	skipnc
  3463  0701  3E01               	addlw	1
  3464  0702  1903               	skipnz
  3465  0703  2F05               	goto	u2541
  3466  0704  07DC               	addwf	___flmul@prod+1,f
  3467  0705                     u2541:	
  3468  0705  0851               	movf	??___flmul+2,w
  3469  0706  1103               	clrz
  3470  0707  1803               	skipnc
  3471  0708  3E01               	addlw	1
  3472  0709  1903               	skipnz
  3473  070A  2F0C               	goto	u2542
  3474  070B  07DD               	addwf	___flmul@prod+2,f
  3475  070C                     u2542:	
  3476  070C  0852               	movf	??___flmul+3,w
  3477  070D  1103               	clrz
  3478  070E  1803               	skipnc
  3479  070F  3E01               	addlw	1
  3480  0710  1903               	skipnz
  3481  0711  2F13               	goto	u2543
  3482  0712  07DE               	addwf	___flmul@prod+3,f
  3483  0713                     u2543:	
  3484  0713                     l1787:	
  3485  0713  3008               	movlw	8
  3486  0714  00CF               	movwf	??___flmul
  3487  0715                     u2555:	
  3488  0715  1003               	clrc
  3489  0716  0DD5               	rlf	___flmul@grs,f
  3490  0717  0DD6               	rlf	___flmul@grs+1,f
  3491  0718  0DD7               	rlf	___flmul@grs+2,f
  3492  0719  0DD8               	rlf	___flmul@grs+3,f
  3493  071A  0BCF               	decfsz	??___flmul,f
  3494  071B  2F15               	goto	u2555
  3495  071C                     l1789:	
  3496  071C  085A               	movf	___flmul@bexp,w
  3497  071D  0759               	addwf	___flmul@aexp,w
  3498  071E  00CF               	movwf	??___flmul
  3499  071F  01D0               	clrf	??___flmul+1
  3500  0720  0DD0               	rlf	??___flmul+1,f
  3501  0721  084F               	movf	??___flmul,w
  3502  0722  3E82               	addlw	130
  3503  0723  00DF               	movwf	___flmul@temp
  3504  0724  0850               	movf	??___flmul+1,w
  3505  0725  1803               	skipnc
  3506  0726  3E01               	addlw	1
  3507  0727  3EFF               	addlw	255
  3508  0728  00E0               	movwf	___flmul@temp+1
  3509  0729  2F47               	goto	l1801
  3510  072A                     l1791:	
  3511  072A  3001               	movlw	1
  3512  072B  00CF               	movwf	??___flmul
  3513  072C                     u2565:	
  3514  072C  1003               	clrc
  3515  072D  0DDB               	rlf	___flmul@prod,f
  3516  072E  0DDC               	rlf	___flmul@prod+1,f
  3517  072F  0DDD               	rlf	___flmul@prod+2,f
  3518  0730  0DDE               	rlf	___flmul@prod+3,f
  3519  0731  0BCF               	decfsz	??___flmul,f
  3520  0732  2F2C               	goto	u2565
  3521  0733                     l1793:	
  3522  0733  1FD8               	btfss	___flmul@grs+3,7
  3523  0734  2F36               	goto	u2571
  3524  0735  2F37               	goto	u2570
  3525  0736                     u2571:	
  3526  0736  2F38               	goto	l1797
  3527  0737                     u2570:	
  3528  0737                     l1795:	
  3529  0737  145B               	bsf	___flmul@prod,0
  3530  0738                     l1797:	
  3531  0738  3001               	movlw	1
  3532  0739  00CF               	movwf	??___flmul
  3533  073A                     u2585:	
  3534  073A  1003               	clrc
  3535  073B  0DD5               	rlf	___flmul@grs,f
  3536  073C  0DD6               	rlf	___flmul@grs+1,f
  3537  073D  0DD7               	rlf	___flmul@grs+2,f
  3538  073E  0DD8               	rlf	___flmul@grs+3,f
  3539  073F  0BCF               	decfsz	??___flmul,f
  3540  0740  2F3A               	goto	u2585
  3541  0741                     l1799:	
  3542  0741  30FF               	movlw	255
  3543  0742  07DF               	addwf	___flmul@temp,f
  3544  0743  1803               	skipnc
  3545  0744  0AE0               	incf	___flmul@temp+1,f
  3546  0745  30FF               	movlw	255
  3547  0746  07E0               	addwf	___flmul@temp+1,f
  3548  0747                     l1801:	
  3549  0747  1FDD               	btfss	___flmul@prod+2,7
  3550  0748  2F4A               	goto	u2591
  3551  0749  2F4B               	goto	u2590
  3552  074A                     u2591:	
  3553  074A  2F2A               	goto	l1791
  3554  074B                     u2590:	
  3555  074B                     l1803:	
  3556  074B  01D9               	clrf	___flmul@aexp
  3557  074C                     l1805:	
  3558  074C  1FD8               	btfss	___flmul@grs+3,7
  3559  074D  2F4F               	goto	u2601
  3560  074E  2F50               	goto	u2600
  3561  074F                     u2601:	
  3562  074F  2F6C               	goto	l1813
  3563  0750                     u2600:	
  3564  0750                     l1807:	
  3565  0750  30FF               	movlw	255
  3566  0751  0555               	andwf	___flmul@grs,w
  3567  0752  00CF               	movwf	??___flmul
  3568  0753  30FF               	movlw	255
  3569  0754  0556               	andwf	___flmul@grs+1,w
  3570  0755  00D0               	movwf	??___flmul+1
  3571  0756  30FF               	movlw	255
  3572  0757  0557               	andwf	___flmul@grs+2,w
  3573  0758  00D1               	movwf	??___flmul+2
  3574  0759  307F               	movlw	127
  3575  075A  0558               	andwf	___flmul@grs+3,w
  3576  075B  00D2               	movwf	??___flmul+3
  3577  075C  0852               	movf	??___flmul+3,w
  3578  075D  0451               	iorwf	??___flmul+2,w
  3579  075E  0450               	iorwf	??___flmul+1,w
  3580  075F  044F               	iorwf	??___flmul,w
  3581  0760  1903               	skipnz
  3582  0761  2F63               	goto	u2611
  3583  0762  2F64               	goto	u2610
  3584  0763                     u2611:	
  3585  0763  2F67               	goto	l554
  3586  0764                     u2610:	
  3587  0764                     l1809:	
  3588  0764  01D9               	clrf	___flmul@aexp
  3589  0765  0AD9               	incf	___flmul@aexp,f
  3590  0766  2F6C               	goto	l1813
  3591  0767                     l554:	
  3592  0767  1C5B               	btfss	___flmul@prod,0
  3593  0768  2F6A               	goto	u2621
  3594  0769  2F6B               	goto	u2620
  3595  076A                     u2621:	
  3596  076A  2F6C               	goto	l1813
  3597  076B                     u2620:	
  3598  076B  2F64               	goto	l1809
  3599  076C                     l1813:	
  3600  076C  0859               	movf	___flmul@aexp,w
  3601  076D  1903               	btfsc	3,2
  3602  076E  2F70               	goto	u2631
  3603  076F  2F71               	goto	u2630
  3604  0770                     u2631:	
  3605  0770  2FA2               	goto	l1823
  3606  0771                     u2630:	
  3607  0771                     l1815:	
  3608  0771  3001               	movlw	1
  3609  0772  07DB               	addwf	___flmul@prod,f
  3610  0773  3000               	movlw	0
  3611  0774  1803               	skipnc
  3612  0775  3001               	movlw	1
  3613  0776  07DC               	addwf	___flmul@prod+1,f
  3614  0777  3000               	movlw	0
  3615  0778  1803               	skipnc
  3616  0779  3001               	movlw	1
  3617  077A  07DD               	addwf	___flmul@prod+2,f
  3618  077B  3000               	movlw	0
  3619  077C  1803               	skipnc
  3620  077D  3001               	movlw	1
  3621  077E  07DE               	addwf	___flmul@prod+3,f
  3622  077F                     l1817:	
  3623  077F  1C5E               	btfss	___flmul@prod+3,0
  3624  0780  2F82               	goto	u2641
  3625  0781  2F83               	goto	u2640
  3626  0782                     u2641:	
  3627  0782  2FA2               	goto	l1823
  3628  0783                     u2640:	
  3629  0783                     l1819:	
  3630  0783  085B               	movf	___flmul@prod,w
  3631  0784  00CF               	movwf	??___flmul
  3632  0785  085C               	movf	___flmul@prod+1,w
  3633  0786  00D0               	movwf	??___flmul+1
  3634  0787  085D               	movf	___flmul@prod+2,w
  3635  0788  00D1               	movwf	??___flmul+2
  3636  0789  085E               	movf	___flmul@prod+3,w
  3637  078A  00D2               	movwf	??___flmul+3
  3638  078B  3001               	movlw	1
  3639  078C  00D3               	movwf	??___flmul+4
  3640  078D                     u2655:	
  3641  078D  0D52               	rlf	??___flmul+3,w
  3642  078E  0CD2               	rrf	??___flmul+3,f
  3643  078F  0CD1               	rrf	??___flmul+2,f
  3644  0790  0CD0               	rrf	??___flmul+1,f
  3645  0791  0CCF               	rrf	??___flmul,f
  3646  0792                     u2650:	
  3647  0792  0BD3               	decfsz	??___flmul+4,f
  3648  0793  2F8D               	goto	u2655
  3649  0794  0852               	movf	??___flmul+3,w
  3650  0795  00DE               	movwf	___flmul@prod+3
  3651  0796  0851               	movf	??___flmul+2,w
  3652  0797  00DD               	movwf	___flmul@prod+2
  3653  0798  0850               	movf	??___flmul+1,w
  3654  0799  00DC               	movwf	___flmul@prod+1
  3655  079A  084F               	movf	??___flmul,w
  3656  079B  00DB               	movwf	___flmul@prod
  3657  079C                     l1821:	
  3658  079C  3001               	movlw	1
  3659  079D  07DF               	addwf	___flmul@temp,f
  3660  079E  1803               	skipnc
  3661  079F  0AE0               	incf	___flmul@temp+1,f
  3662  07A0  3000               	movlw	0
  3663  07A1  07E0               	addwf	___flmul@temp+1,f
  3664  07A2                     l1823:	
  3665  07A2  0860               	movf	___flmul@temp+1,w
  3666  07A3  3A80               	xorlw	128
  3667  07A4  00FF               	movwf	btemp+1
  3668  07A5  3080               	movlw	128
  3669  07A6  027F               	subwf	btemp+1,w
  3670  07A7  1D03               	skipz
  3671  07A8  2FAB               	goto	u2665
  3672  07A9  30FF               	movlw	255
  3673  07AA  025F               	subwf	___flmul@temp,w
  3674  07AB                     u2665:	
  3675  07AB  1C03               	skipc
  3676  07AC  2FAE               	goto	u2661
  3677  07AD  2FAF               	goto	u2660
  3678  07AE                     u2661:	
  3679  07AE  2FBA               	goto	l1827
  3680  07AF                     u2660:	
  3681  07AF                     l1825:	
  3682  07AF  307F               	movlw	127
  3683  07B0  1283               	bcf	3,5	;RP0=0, select bank0
  3684  07B1  1303               	bcf	3,6	;RP1=0, select bank0
  3685  07B2  00DE               	movwf	___flmul@prod+3
  3686  07B3  3080               	movlw	128
  3687  07B4  00DD               	movwf	___flmul@prod+2
  3688  07B5  3000               	movlw	0
  3689  07B6  00DC               	movwf	___flmul@prod+1
  3690  07B7  3000               	movlw	0
  3691  07B8  00DB               	movwf	___flmul@prod
  3692  07B9  2FEF               	goto	l560
  3693  07BA                     l1827:	
  3694  07BA  1283               	bcf	3,5	;RP0=0, select bank0
  3695  07BB  1303               	bcf	3,6	;RP1=0, select bank0
  3696  07BC  0860               	movf	___flmul@temp+1,w
  3697  07BD  3A80               	xorlw	128
  3698  07BE  00FF               	movwf	btemp+1
  3699  07BF  3080               	movlw	128
  3700  07C0  027F               	subwf	btemp+1,w
  3701  07C1  1D03               	skipz
  3702  07C2  2FC5               	goto	u2675
  3703  07C3  3001               	movlw	1
  3704  07C4  025F               	subwf	___flmul@temp,w
  3705  07C5                     u2675:	
  3706  07C5  1803               	skipnc
  3707  07C6  2FC8               	goto	u2671
  3708  07C7  2FC9               	goto	u2670
  3709  07C8                     u2671:	
  3710  07C8  2FD5               	goto	l1833
  3711  07C9                     u2670:	
  3712  07C9                     l1829:	
  3713  07C9  3000               	movlw	0
  3714  07CA  1283               	bcf	3,5	;RP0=0, select bank0
  3715  07CB  1303               	bcf	3,6	;RP1=0, select bank0
  3716  07CC  00DE               	movwf	___flmul@prod+3
  3717  07CD  3000               	movlw	0
  3718  07CE  00DD               	movwf	___flmul@prod+2
  3719  07CF  3000               	movlw	0
  3720  07D0  00DC               	movwf	___flmul@prod+1
  3721  07D1  3000               	movlw	0
  3722  07D2  00DB               	movwf	___flmul@prod
  3723  07D3                     l1831:	
  3724  07D3  01D4               	clrf	___flmul@sign
  3725  07D4  2FEF               	goto	l560
  3726  07D5                     l1833:	
  3727  07D5  1283               	bcf	3,5	;RP0=0, select bank0
  3728  07D6  1303               	bcf	3,6	;RP1=0, select bank0
  3729  07D7  085F               	movf	___flmul@temp,w
  3730  07D8  00CF               	movwf	??___flmul
  3731  07D9  084F               	movf	??___flmul,w
  3732  07DA  00DA               	movwf	___flmul@bexp
  3733  07DB  30FF               	movlw	255
  3734  07DC  05DB               	andwf	___flmul@prod,f
  3735  07DD  30FF               	movlw	255
  3736  07DE  05DC               	andwf	___flmul@prod+1,f
  3737  07DF  307F               	movlw	127
  3738  07E0  05DD               	andwf	___flmul@prod+2,f
  3739  07E1  3000               	movlw	0
  3740  07E2  05DE               	andwf	___flmul@prod+3,f
  3741  07E3                     l1835:	
  3742  07E3  1C5A               	btfss	___flmul@bexp,0
  3743  07E4  2FE6               	goto	u2681
  3744  07E5  2FE7               	goto	u2680
  3745  07E6                     u2681:	
  3746  07E6  2FE8               	goto	l1839
  3747  07E7                     u2680:	
  3748  07E7                     l1837:	
  3749  07E7  17DD               	bsf	___flmul@prod+2,7
  3750  07E8                     l1839:	
  3751  07E8  085A               	movf	___flmul@bexp,w
  3752  07E9  00CF               	movwf	??___flmul
  3753  07EA  1003               	clrc
  3754  07EB  0C4F               	rrf	??___flmul,w
  3755  07EC  00D0               	movwf	??___flmul+1
  3756  07ED  0850               	movf	??___flmul+1,w
  3757  07EE  00DE               	movwf	___flmul@prod+3
  3758  07EF                     l560:	
  3759  07EF  0854               	movf	___flmul@sign,w
  3760  07F0  00CF               	movwf	??___flmul
  3761  07F1  084F               	movf	??___flmul,w
  3762  07F2  04DE               	iorwf	___flmul@prod+3,f
  3763  07F3                     l1841:	
  3764  07F3  085E               	movf	___flmul@prod+3,w
  3765  07F4  00CA               	movwf	?___flmul+3
  3766  07F5  085D               	movf	___flmul@prod+2,w
  3767  07F6  00C9               	movwf	?___flmul+2
  3768  07F7  085C               	movf	___flmul@prod+1,w
  3769  07F8  00C8               	movwf	?___flmul+1
  3770  07F9  085B               	movf	___flmul@prod,w
  3771  07FA  00C7               	movwf	?___flmul
  3772  07FB                     l548:	
  3773  07FB  0008               	return
  3774  07FC                     __end_of___flmul:	
  3775                           
  3776                           	psect	text9
  3777  0CD5                     __ptext9:	
  3778 ;; *************** function __Umul8_16 *****************
  3779 ;; Defined at:
  3780 ;;		line 4 in file "G:\Softwares\XC8\pic\sources\c90\common\Umul8_16.c"
  3781 ;; Parameters:    Size  Location     Type
  3782 ;;  multiplier      1    wreg     unsigned char 
  3783 ;;  multiplicand    1    0[COMMON] unsigned char 
  3784 ;; Auto vars:     Size  Location     Type
  3785 ;;  multiplier      1    8[COMMON] unsigned char 
  3786 ;;  word_mpld       2    6[COMMON] unsigned int 
  3787 ;;  product         2    4[COMMON] unsigned int 
  3788 ;; Return value:  Size  Location     Type
  3789 ;;                  2    0[COMMON] unsigned int 
  3790 ;; Registers used:
  3791 ;;		wreg, status,2, status,0
  3792 ;; Tracked objects:
  3793 ;;		On entry : 0/0
  3794 ;;		On exit  : 0/0
  3795 ;;		Unchanged: 0/0
  3796 ;; Data sizes:     COMMON   BANK0   BANK1   BANK3   BANK2
  3797 ;;      Params:         2       0       0       0       0
  3798 ;;      Locals:         5       0       0       0       0
  3799 ;;      Temps:          2       0       0       0       0
  3800 ;;      Totals:         9       0       0       0       0
  3801 ;;Total ram usage:        9 bytes
  3802 ;; Hardware stack levels used:    1
  3803 ;; This function calls:
  3804 ;;		Nothing
  3805 ;; This function is called by:
  3806 ;;		___flmul
  3807 ;; This function uses a non-reentrant model
  3808 ;;
  3809                           
  3810                           
  3811                           ;psect for function __Umul8_16
  3812  0CD5                     __Umul8_16:	
  3813                           
  3814                           ;incstack = 0
  3815                           ; Regs used in __Umul8_16: [wreg+status,2+status,0]
  3816                           ;__Umul8_16@multiplier stored from wreg
  3817  0CD5  00F8               	movwf	__Umul8_16@multiplier
  3818  0CD6                     l1621:	
  3819  0CD6  01F4               	clrf	__Umul8_16@product
  3820  0CD7  01F5               	clrf	__Umul8_16@product+1
  3821  0CD8                     l1623:	
  3822  0CD8  0870               	movf	__Umul8_16@multiplicand,w
  3823  0CD9  00F2               	movwf	??__Umul8_16
  3824  0CDA  01F3               	clrf	??__Umul8_16+1
  3825  0CDB  0872               	movf	??__Umul8_16,w
  3826  0CDC  00F6               	movwf	__Umul8_16@word_mpld
  3827  0CDD  0873               	movf	??__Umul8_16+1,w
  3828  0CDE  00F7               	movwf	__Umul8_16@word_mpld+1
  3829  0CDF                     l1625:	
  3830  0CDF  1C78               	btfss	__Umul8_16@multiplier,0
  3831  0CE0  2CE2               	goto	u2171
  3832  0CE1  2CE3               	goto	u2170
  3833  0CE2                     u2171:	
  3834  0CE2  2CE9               	goto	l605
  3835  0CE3                     u2170:	
  3836  0CE3                     l1627:	
  3837  0CE3  0876               	movf	__Umul8_16@word_mpld,w
  3838  0CE4  07F4               	addwf	__Umul8_16@product,f
  3839  0CE5  1803               	skipnc
  3840  0CE6  0AF5               	incf	__Umul8_16@product+1,f
  3841  0CE7  0877               	movf	__Umul8_16@word_mpld+1,w
  3842  0CE8  07F5               	addwf	__Umul8_16@product+1,f
  3843  0CE9                     l605:	
  3844  0CE9  3001               	movlw	1
  3845  0CEA                     u2185:	
  3846  0CEA  1003               	clrc
  3847  0CEB  0DF6               	rlf	__Umul8_16@word_mpld,f
  3848  0CEC  0DF7               	rlf	__Umul8_16@word_mpld+1,f
  3849  0CED  3EFF               	addlw	-1
  3850  0CEE  1D03               	skipz
  3851  0CEF  2CEA               	goto	u2185
  3852  0CF0  1003               	clrc
  3853  0CF1  0CF8               	rrf	__Umul8_16@multiplier,f
  3854  0CF2                     l1629:	
  3855  0CF2  0878               	movf	__Umul8_16@multiplier,w
  3856  0CF3  1D03               	btfss	3,2
  3857  0CF4  2CF6               	goto	u2191
  3858  0CF5  2CF7               	goto	u2190
  3859  0CF6                     u2191:	
  3860  0CF6  2CDF               	goto	l1625
  3861  0CF7                     u2190:	
  3862  0CF7                     l1631:	
  3863  0CF7  0875               	movf	__Umul8_16@product+1,w
  3864  0CF8  00F1               	movwf	?__Umul8_16+1
  3865  0CF9  0874               	movf	__Umul8_16@product,w
  3866  0CFA  00F0               	movwf	?__Umul8_16
  3867  0CFB                     l607:	
  3868  0CFB  0008               	return
  3869  0CFC                     __end_of__Umul8_16:	
  3870                           
  3871                           	psect	text10
  3872  0E12                     __ptext10:	
  3873 ;; *************** function _Lcd_Print_Num *****************
  3874 ;; Defined at:
  3875 ;;		line 74 in file "main.c"
  3876 ;; Parameters:    Size  Location     Type
  3877 ;;  num             2   25[BANK0 ] int 
  3878 ;; Auto vars:     Size  Location     Type
  3879 ;;  rem             2   27[BANK0 ] int 
  3880 ;;  reverse         2   31[BANK0 ] int 
  3881 ;;  temp            2   29[BANK0 ] int 
  3882 ;; Return value:  Size  Location     Type
  3883 ;;                  1    wreg      void 
  3884 ;; Registers used:
  3885 ;;		wreg, status,2, status,0, btemp+1, pclath, cstack
  3886 ;; Tracked objects:
  3887 ;;		On entry : 0/0
  3888 ;;		On exit  : 0/0
  3889 ;;		Unchanged: 0/0
  3890 ;; Data sizes:     COMMON   BANK0   BANK1   BANK3   BANK2
  3891 ;;      Params:         0       2       0       0       0
  3892 ;;      Locals:         0       6       0       0       0
  3893 ;;      Temps:          0       0       0       0       0
  3894 ;;      Totals:         0       8       0       0       0
  3895 ;;Total ram usage:        8 bytes
  3896 ;; Hardware stack levels used:    1
  3897 ;; Hardware stack levels required when called:    1
  3898 ;; This function calls:
  3899 ;;		_Lcd_Print_Char
  3900 ;;		___awdiv
  3901 ;;		___awmod
  3902 ;;		___wmul
  3903 ;; This function is called by:
  3904 ;;		_Lcd_Print_Float
  3905 ;; This function uses a non-reentrant model
  3906 ;;
  3907                           
  3908                           
  3909                           ;psect for function _Lcd_Print_Num
  3910  0E12                     _Lcd_Print_Num:	
  3911  0E12                     l1643:	
  3912                           ;incstack = 0
  3913                           ; Regs used in _Lcd_Print_Num: [wreg+status,2+status,0+btemp+1+pclath+cstack]
  3914                           
  3915                           
  3916                           ;main.c: 75:     int temp = num;
  3917  0E12  1283               	bcf	3,5	;RP0=0, select bank0
  3918  0E13  1303               	bcf	3,6	;RP1=0, select bank0
  3919  0E14  083A               	movf	Lcd_Print_Num@num+1,w
  3920  0E15  00BE               	movwf	Lcd_Print_Num@temp+1
  3921  0E16  0839               	movf	Lcd_Print_Num@num,w
  3922  0E17  00BD               	movwf	Lcd_Print_Num@temp
  3923  0E18                     l1645:	
  3924                           
  3925                           ;main.c: 76:     int reverse = 0;
  3926  0E18  01BF               	clrf	Lcd_Print_Num@reverse
  3927  0E19  01C0               	clrf	Lcd_Print_Num@reverse+1
  3928  0E1A                     l1647:	
  3929                           
  3930                           ;main.c: 77:     for(;temp > 0; ) {
  3931  0E1A  083E               	movf	Lcd_Print_Num@temp+1,w
  3932  0E1B  3A80               	xorlw	128
  3933  0E1C  00FF               	movwf	btemp+1
  3934  0E1D  3080               	movlw	128
  3935  0E1E  027F               	subwf	btemp+1,w
  3936  0E1F  1D03               	skipz
  3937  0E20  2E23               	goto	u2205
  3938  0E21  3001               	movlw	1
  3939  0E22  023D               	subwf	Lcd_Print_Num@temp,w
  3940  0E23                     u2205:	
  3941  0E23  1803               	skipnc
  3942  0E24  2E26               	goto	u2201
  3943  0E25  2E27               	goto	u2200
  3944  0E26                     u2201:	
  3945  0E26  2E28               	goto	l1651
  3946  0E27                     u2200:	
  3947  0E27  2E68               	goto	l1655
  3948  0E28                     l1651:	
  3949                           
  3950                           ;main.c: 78:         int rem = temp%10;
  3951  0E28  300A               	movlw	10
  3952  0E29  00F0               	movwf	___awmod@divisor
  3953  0E2A  3000               	movlw	0
  3954  0E2B  00F1               	movwf	___awmod@divisor+1
  3955  0E2C  1283               	bcf	3,5	;RP0=0, select bank0
  3956  0E2D  1303               	bcf	3,6	;RP1=0, select bank0
  3957  0E2E  083E               	movf	Lcd_Print_Num@temp+1,w
  3958  0E2F  00F3               	movwf	___awmod@dividend+1
  3959  0E30  083D               	movf	Lcd_Print_Num@temp,w
  3960  0E31  00F2               	movwf	___awmod@dividend
  3961  0E32  120A  158A  2552  120A  158A  	fcall	___awmod
  3962  0E37  0871               	movf	?___awmod+1,w
  3963  0E38  1283               	bcf	3,5	;RP0=0, select bank0
  3964  0E39  1303               	bcf	3,6	;RP1=0, select bank0
  3965  0E3A  00BC               	movwf	Lcd_Print_Num@rem+1
  3966  0E3B  0870               	movf	?___awmod,w
  3967  0E3C  00BB               	movwf	Lcd_Print_Num@rem
  3968                           
  3969                           ;main.c: 79:         temp /= 10;
  3970  0E3D  300A               	movlw	10
  3971  0E3E  00F0               	movwf	___awdiv@divisor
  3972  0E3F  3000               	movlw	0
  3973  0E40  00F1               	movwf	___awdiv@divisor+1
  3974  0E41  083E               	movf	Lcd_Print_Num@temp+1,w
  3975  0E42  00F3               	movwf	___awdiv@dividend+1
  3976  0E43  083D               	movf	Lcd_Print_Num@temp,w
  3977  0E44  00F2               	movwf	___awdiv@dividend
  3978  0E45  120A  158A  25AB  120A  158A  	fcall	___awdiv
  3979  0E4A  0871               	movf	?___awdiv+1,w
  3980  0E4B  1283               	bcf	3,5	;RP0=0, select bank0
  3981  0E4C  1303               	bcf	3,6	;RP1=0, select bank0
  3982  0E4D  00BE               	movwf	Lcd_Print_Num@temp+1
  3983  0E4E  0870               	movf	?___awdiv,w
  3984  0E4F  00BD               	movwf	Lcd_Print_Num@temp
  3985                           
  3986                           ;main.c: 80:         reverse = reverse * 10 + rem;
  3987  0E50  0840               	movf	Lcd_Print_Num@reverse+1,w
  3988  0E51  00F1               	movwf	___wmul@multiplier+1
  3989  0E52  083F               	movf	Lcd_Print_Num@reverse,w
  3990  0E53  00F0               	movwf	___wmul@multiplier
  3991  0E54  300A               	movlw	10
  3992  0E55  00F2               	movwf	___wmul@multiplicand
  3993  0E56  3000               	movlw	0
  3994  0E57  00F3               	movwf	___wmul@multiplicand+1
  3995  0E58  120A  158A  24B0  120A  158A  	fcall	___wmul
  3996  0E5D  1283               	bcf	3,5	;RP0=0, select bank0
  3997  0E5E  1303               	bcf	3,6	;RP1=0, select bank0
  3998  0E5F  083B               	movf	Lcd_Print_Num@rem,w
  3999  0E60  0770               	addwf	?___wmul,w
  4000  0E61  00BF               	movwf	Lcd_Print_Num@reverse
  4001  0E62  083C               	movf	Lcd_Print_Num@rem+1,w
  4002  0E63  1803               	skipnc
  4003  0E64  0A3C               	incf	Lcd_Print_Num@rem+1,w
  4004  0E65  0771               	addwf	?___wmul+1,w
  4005  0E66  00C0               	movwf	Lcd_Print_Num@reverse+1
  4006  0E67  2E1A               	goto	l1647
  4007  0E68                     l1655:	
  4008                           
  4009                           ;main.c: 83:     for(; reverse > 0;) {
  4010  0E68  1283               	bcf	3,5	;RP0=0, select bank0
  4011  0E69  1303               	bcf	3,6	;RP1=0, select bank0
  4012  0E6A  0840               	movf	Lcd_Print_Num@reverse+1,w
  4013  0E6B  3A80               	xorlw	128
  4014  0E6C  00FF               	movwf	btemp+1
  4015  0E6D  3080               	movlw	128
  4016  0E6E  027F               	subwf	btemp+1,w
  4017  0E6F  1D03               	skipz
  4018  0E70  2E73               	goto	u2215
  4019  0E71  3001               	movlw	1
  4020  0E72  023F               	subwf	Lcd_Print_Num@reverse,w
  4021  0E73                     u2215:	
  4022  0E73  1803               	skipnc
  4023  0E74  2E76               	goto	u2211
  4024  0E75  2E77               	goto	u2210
  4025  0E76                     u2211:	
  4026  0E76  2E78               	goto	l1659
  4027  0E77                     u2210:	
  4028  0E77  2EA4               	goto	l60
  4029  0E78                     l1659:	
  4030                           
  4031                           ;main.c: 84:         Lcd_Print_Char(reverse % 10 + 48);
  4032  0E78  300A               	movlw	10
  4033  0E79  00F0               	movwf	___awmod@divisor
  4034  0E7A  3000               	movlw	0
  4035  0E7B  00F1               	movwf	___awmod@divisor+1
  4036  0E7C  1283               	bcf	3,5	;RP0=0, select bank0
  4037  0E7D  1303               	bcf	3,6	;RP1=0, select bank0
  4038  0E7E  0840               	movf	Lcd_Print_Num@reverse+1,w
  4039  0E7F  00F3               	movwf	___awmod@dividend+1
  4040  0E80  083F               	movf	Lcd_Print_Num@reverse,w
  4041  0E81  00F2               	movwf	___awmod@dividend
  4042  0E82  120A  158A  2552  120A  158A  	fcall	___awmod
  4043  0E87  0870               	movf	?___awmod,w
  4044  0E88  3E30               	addlw	48
  4045  0E89  120A  158A  2478  120A  158A  	fcall	_Lcd_Print_Char
  4046                           
  4047                           ;main.c: 85:         reverse /= 10;
  4048  0E8E  300A               	movlw	10
  4049  0E8F  00F0               	movwf	___awdiv@divisor
  4050  0E90  3000               	movlw	0
  4051  0E91  00F1               	movwf	___awdiv@divisor+1
  4052  0E92  1283               	bcf	3,5	;RP0=0, select bank0
  4053  0E93  1303               	bcf	3,6	;RP1=0, select bank0
  4054  0E94  0840               	movf	Lcd_Print_Num@reverse+1,w
  4055  0E95  00F3               	movwf	___awdiv@dividend+1
  4056  0E96  083F               	movf	Lcd_Print_Num@reverse,w
  4057  0E97  00F2               	movwf	___awdiv@dividend
  4058  0E98  120A  158A  25AB  120A  158A  	fcall	___awdiv
  4059  0E9D  0871               	movf	?___awdiv+1,w
  4060  0E9E  1283               	bcf	3,5	;RP0=0, select bank0
  4061  0E9F  1303               	bcf	3,6	;RP1=0, select bank0
  4062  0EA0  00C0               	movwf	Lcd_Print_Num@reverse+1
  4063  0EA1  0870               	movf	?___awdiv,w
  4064  0EA2  00BF               	movwf	Lcd_Print_Num@reverse
  4065  0EA3  2E68               	goto	l1655
  4066  0EA4                     l60:	
  4067  0EA4  0008               	return
  4068  0EA5                     __end_of_Lcd_Print_Num:	
  4069                           
  4070                           	psect	text11
  4071  0CB0                     __ptext11:	
  4072 ;; *************** function ___wmul *****************
  4073 ;; Defined at:
  4074 ;;		line 15 in file "G:\Softwares\XC8\pic\sources\c90\common\Umul16.c"
  4075 ;; Parameters:    Size  Location     Type
  4076 ;;  multiplier      2    0[COMMON] unsigned int 
  4077 ;;  multiplicand    2    2[COMMON] unsigned int 
  4078 ;; Auto vars:     Size  Location     Type
  4079 ;;  product         2    4[COMMON] unsigned int 
  4080 ;; Return value:  Size  Location     Type
  4081 ;;                  2    0[COMMON] unsigned int 
  4082 ;; Registers used:
  4083 ;;		wreg, status,2, status,0
  4084 ;; Tracked objects:
  4085 ;;		On entry : 0/0
  4086 ;;		On exit  : 0/0
  4087 ;;		Unchanged: 0/0
  4088 ;; Data sizes:     COMMON   BANK0   BANK1   BANK3   BANK2
  4089 ;;      Params:         4       0       0       0       0
  4090 ;;      Locals:         2       0       0       0       0
  4091 ;;      Temps:          0       0       0       0       0
  4092 ;;      Totals:         6       0       0       0       0
  4093 ;;Total ram usage:        6 bytes
  4094 ;; Hardware stack levels used:    1
  4095 ;; This function calls:
  4096 ;;		Nothing
  4097 ;; This function is called by:
  4098 ;;		_Lcd_Print_Num
  4099 ;; This function uses a non-reentrant model
  4100 ;;
  4101                           
  4102                           
  4103                           ;psect for function ___wmul
  4104  0CB0                     ___wmul:	
  4105  0CB0                     l1331:	
  4106                           ;incstack = 0
  4107                           ; Regs used in ___wmul: [wreg+status,2+status,0]
  4108                           
  4109  0CB0  01F4               	clrf	___wmul@product
  4110  0CB1  01F5               	clrf	___wmul@product+1
  4111  0CB2                     l1333:	
  4112  0CB2  1C70               	btfss	___wmul@multiplier,0
  4113  0CB3  2CB5               	goto	u1481
  4114  0CB4  2CB6               	goto	u1480
  4115  0CB5                     u1481:	
  4116  0CB5  2CBC               	goto	l159
  4117  0CB6                     u1480:	
  4118  0CB6                     l1335:	
  4119  0CB6  0872               	movf	___wmul@multiplicand,w
  4120  0CB7  07F4               	addwf	___wmul@product,f
  4121  0CB8  1803               	skipnc
  4122  0CB9  0AF5               	incf	___wmul@product+1,f
  4123  0CBA  0873               	movf	___wmul@multiplicand+1,w
  4124  0CBB  07F5               	addwf	___wmul@product+1,f
  4125  0CBC                     l159:	
  4126  0CBC  3001               	movlw	1
  4127  0CBD                     u1495:	
  4128  0CBD  1003               	clrc
  4129  0CBE  0DF2               	rlf	___wmul@multiplicand,f
  4130  0CBF  0DF3               	rlf	___wmul@multiplicand+1,f
  4131  0CC0  3EFF               	addlw	-1
  4132  0CC1  1D03               	skipz
  4133  0CC2  2CBD               	goto	u1495
  4134  0CC3                     l1337:	
  4135  0CC3  3001               	movlw	1
  4136  0CC4                     u1505:	
  4137  0CC4  1003               	clrc
  4138  0CC5  0CF1               	rrf	___wmul@multiplier+1,f
  4139  0CC6  0CF0               	rrf	___wmul@multiplier,f
  4140  0CC7  3EFF               	addlw	-1
  4141  0CC8  1D03               	skipz
  4142  0CC9  2CC4               	goto	u1505
  4143  0CCA                     l1339:	
  4144  0CCA  0870               	movf	___wmul@multiplier,w
  4145  0CCB  0471               	iorwf	___wmul@multiplier+1,w
  4146  0CCC  1D03               	btfss	3,2
  4147  0CCD  2CCF               	goto	u1511
  4148  0CCE  2CD0               	goto	u1510
  4149  0CCF                     u1511:	
  4150  0CCF  2CB2               	goto	l1333
  4151  0CD0                     u1510:	
  4152  0CD0                     l1341:	
  4153  0CD0  0875               	movf	___wmul@product+1,w
  4154  0CD1  00F1               	movwf	?___wmul+1
  4155  0CD2  0874               	movf	___wmul@product,w
  4156  0CD3  00F0               	movwf	?___wmul
  4157  0CD4                     l161:	
  4158  0CD4  0008               	return
  4159  0CD5                     __end_of___wmul:	
  4160                           
  4161                           	psect	text12
  4162  0D52                     __ptext12:	
  4163 ;; *************** function ___awmod *****************
  4164 ;; Defined at:
  4165 ;;		line 5 in file "G:\Softwares\XC8\pic\sources\c90\common\awmod.c"
  4166 ;; Parameters:    Size  Location     Type
  4167 ;;  divisor         2    0[COMMON] int 
  4168 ;;  dividend        2    2[COMMON] int 
  4169 ;; Auto vars:     Size  Location     Type
  4170 ;;  sign            1    6[COMMON] unsigned char 
  4171 ;;  counter         1    5[COMMON] unsigned char 
  4172 ;; Return value:  Size  Location     Type
  4173 ;;                  2    0[COMMON] int 
  4174 ;; Registers used:
  4175 ;;		wreg, status,2, status,0
  4176 ;; Tracked objects:
  4177 ;;		On entry : 0/0
  4178 ;;		On exit  : 0/0
  4179 ;;		Unchanged: 0/0
  4180 ;; Data sizes:     COMMON   BANK0   BANK1   BANK3   BANK2
  4181 ;;      Params:         4       0       0       0       0
  4182 ;;      Locals:         2       0       0       0       0
  4183 ;;      Temps:          1       0       0       0       0
  4184 ;;      Totals:         7       0       0       0       0
  4185 ;;Total ram usage:        7 bytes
  4186 ;; Hardware stack levels used:    1
  4187 ;; This function calls:
  4188 ;;		Nothing
  4189 ;; This function is called by:
  4190 ;;		_Lcd_Print_Num
  4191 ;; This function uses a non-reentrant model
  4192 ;;
  4193                           
  4194                           
  4195                           ;psect for function ___awmod
  4196  0D52                     ___awmod:	
  4197  0D52                     l1389:	
  4198                           ;incstack = 0
  4199                           ; Regs used in ___awmod: [wreg+status,2+status,0]
  4200                           
  4201  0D52  01F6               	clrf	___awmod@sign
  4202  0D53                     l1391:	
  4203  0D53  1FF3               	btfss	___awmod@dividend+1,7
  4204  0D54  2D56               	goto	u1621
  4205  0D55  2D57               	goto	u1620
  4206  0D56                     u1621:	
  4207  0D56  2D5E               	goto	l1397
  4208  0D57                     u1620:	
  4209  0D57                     l1393:	
  4210  0D57  09F2               	comf	___awmod@dividend,f
  4211  0D58  09F3               	comf	___awmod@dividend+1,f
  4212  0D59  0AF2               	incf	___awmod@dividend,f
  4213  0D5A  1903               	skipnz
  4214  0D5B  0AF3               	incf	___awmod@dividend+1,f
  4215  0D5C                     l1395:	
  4216  0D5C  01F6               	clrf	___awmod@sign
  4217  0D5D  0AF6               	incf	___awmod@sign,f
  4218  0D5E                     l1397:	
  4219  0D5E  1FF1               	btfss	___awmod@divisor+1,7
  4220  0D5F  2D61               	goto	u1631
  4221  0D60  2D62               	goto	u1630
  4222  0D61                     u1631:	
  4223  0D61  2D67               	goto	l1401
  4224  0D62                     u1630:	
  4225  0D62                     l1399:	
  4226  0D62  09F0               	comf	___awmod@divisor,f
  4227  0D63  09F1               	comf	___awmod@divisor+1,f
  4228  0D64  0AF0               	incf	___awmod@divisor,f
  4229  0D65  1903               	skipnz
  4230  0D66  0AF1               	incf	___awmod@divisor+1,f
  4231  0D67                     l1401:	
  4232  0D67  0870               	movf	___awmod@divisor,w
  4233  0D68  0471               	iorwf	___awmod@divisor+1,w
  4234  0D69  1903               	btfsc	3,2
  4235  0D6A  2D6C               	goto	u1641
  4236  0D6B  2D6D               	goto	u1640
  4237  0D6C                     u1641:	
  4238  0D6C  2D9C               	goto	l1419
  4239  0D6D                     u1640:	
  4240  0D6D                     l1403:	
  4241  0D6D  01F5               	clrf	___awmod@counter
  4242  0D6E  0AF5               	incf	___awmod@counter,f
  4243  0D6F  2D7B               	goto	l1409
  4244  0D70                     l1405:	
  4245  0D70  3001               	movlw	1
  4246  0D71                     u1655:	
  4247  0D71  1003               	clrc
  4248  0D72  0DF0               	rlf	___awmod@divisor,f
  4249  0D73  0DF1               	rlf	___awmod@divisor+1,f
  4250  0D74  3EFF               	addlw	-1
  4251  0D75  1D03               	skipz
  4252  0D76  2D71               	goto	u1655
  4253  0D77                     l1407:	
  4254  0D77  3001               	movlw	1
  4255  0D78  00F4               	movwf	??___awmod
  4256  0D79  0874               	movf	??___awmod,w
  4257  0D7A  07F5               	addwf	___awmod@counter,f
  4258  0D7B                     l1409:	
  4259  0D7B  1FF1               	btfss	___awmod@divisor+1,7
  4260  0D7C  2D7E               	goto	u1661
  4261  0D7D  2D7F               	goto	u1660
  4262  0D7E                     u1661:	
  4263  0D7E  2D70               	goto	l1405
  4264  0D7F                     u1660:	
  4265  0D7F                     l1411:	
  4266  0D7F  0871               	movf	___awmod@divisor+1,w
  4267  0D80  0273               	subwf	___awmod@dividend+1,w
  4268  0D81  1D03               	skipz
  4269  0D82  2D85               	goto	u1675
  4270  0D83  0870               	movf	___awmod@divisor,w
  4271  0D84  0272               	subwf	___awmod@dividend,w
  4272  0D85                     u1675:	
  4273  0D85  1C03               	skipc
  4274  0D86  2D88               	goto	u1671
  4275  0D87  2D89               	goto	u1670
  4276  0D88                     u1671:	
  4277  0D88  2D8F               	goto	l1415
  4278  0D89                     u1670:	
  4279  0D89                     l1413:	
  4280  0D89  0870               	movf	___awmod@divisor,w
  4281  0D8A  02F2               	subwf	___awmod@dividend,f
  4282  0D8B  0871               	movf	___awmod@divisor+1,w
  4283  0D8C  1C03               	skipc
  4284  0D8D  03F3               	decf	___awmod@dividend+1,f
  4285  0D8E  02F3               	subwf	___awmod@dividend+1,f
  4286  0D8F                     l1415:	
  4287  0D8F  3001               	movlw	1
  4288  0D90                     u1685:	
  4289  0D90  1003               	clrc
  4290  0D91  0CF1               	rrf	___awmod@divisor+1,f
  4291  0D92  0CF0               	rrf	___awmod@divisor,f
  4292  0D93  3EFF               	addlw	-1
  4293  0D94  1D03               	skipz
  4294  0D95  2D90               	goto	u1685
  4295  0D96                     l1417:	
  4296  0D96  3001               	movlw	1
  4297  0D97  02F5               	subwf	___awmod@counter,f
  4298  0D98  1D03               	btfss	3,2
  4299  0D99  2D9B               	goto	u1691
  4300  0D9A  2D9C               	goto	u1690
  4301  0D9B                     u1691:	
  4302  0D9B  2D7F               	goto	l1411
  4303  0D9C                     u1690:	
  4304  0D9C                     l1419:	
  4305  0D9C  0876               	movf	___awmod@sign,w
  4306  0D9D  1903               	btfsc	3,2
  4307  0D9E  2DA0               	goto	u1701
  4308  0D9F  2DA1               	goto	u1700
  4309  0DA0                     u1701:	
  4310  0DA0  2DA6               	goto	l1423
  4311  0DA1                     u1700:	
  4312  0DA1                     l1421:	
  4313  0DA1  09F2               	comf	___awmod@dividend,f
  4314  0DA2  09F3               	comf	___awmod@dividend+1,f
  4315  0DA3  0AF2               	incf	___awmod@dividend,f
  4316  0DA4  1903               	skipnz
  4317  0DA5  0AF3               	incf	___awmod@dividend+1,f
  4318  0DA6                     l1423:	
  4319  0DA6  0873               	movf	___awmod@dividend+1,w
  4320  0DA7  00F1               	movwf	?___awmod+1
  4321  0DA8  0872               	movf	___awmod@dividend,w
  4322  0DA9  00F0               	movwf	?___awmod
  4323  0DAA                     l325:	
  4324  0DAA  0008               	return
  4325  0DAB                     __end_of___awmod:	
  4326                           
  4327                           	psect	text13
  4328  0DAB                     __ptext13:	
  4329 ;; *************** function ___awdiv *****************
  4330 ;; Defined at:
  4331 ;;		line 5 in file "G:\Softwares\XC8\pic\sources\c90\common\awdiv.c"
  4332 ;; Parameters:    Size  Location     Type
  4333 ;;  divisor         2    0[COMMON] int 
  4334 ;;  dividend        2    2[COMMON] int 
  4335 ;; Auto vars:     Size  Location     Type
  4336 ;;  quotient        2    7[COMMON] int 
  4337 ;;  sign            1    6[COMMON] unsigned char 
  4338 ;;  counter         1    5[COMMON] unsigned char 
  4339 ;; Return value:  Size  Location     Type
  4340 ;;                  2    0[COMMON] int 
  4341 ;; Registers used:
  4342 ;;		wreg, status,2, status,0
  4343 ;; Tracked objects:
  4344 ;;		On entry : 0/0
  4345 ;;		On exit  : 0/0
  4346 ;;		Unchanged: 0/0
  4347 ;; Data sizes:     COMMON   BANK0   BANK1   BANK3   BANK2
  4348 ;;      Params:         4       0       0       0       0
  4349 ;;      Locals:         4       0       0       0       0
  4350 ;;      Temps:          1       0       0       0       0
  4351 ;;      Totals:         9       0       0       0       0
  4352 ;;Total ram usage:        9 bytes
  4353 ;; Hardware stack levels used:    1
  4354 ;; This function calls:
  4355 ;;		Nothing
  4356 ;; This function is called by:
  4357 ;;		_Lcd_Print_Num
  4358 ;; This function uses a non-reentrant model
  4359 ;;
  4360                           
  4361                           
  4362                           ;psect for function ___awdiv
  4363  0DAB                     ___awdiv:	
  4364  0DAB                     l1345:	
  4365                           ;incstack = 0
  4366                           ; Regs used in ___awdiv: [wreg+status,2+status,0]
  4367                           
  4368  0DAB  01F6               	clrf	___awdiv@sign
  4369  0DAC                     l1347:	
  4370  0DAC  1FF1               	btfss	___awdiv@divisor+1,7
  4371  0DAD  2DAF               	goto	u1521
  4372  0DAE  2DB0               	goto	u1520
  4373  0DAF                     u1521:	
  4374  0DAF  2DB7               	goto	l1353
  4375  0DB0                     u1520:	
  4376  0DB0                     l1349:	
  4377  0DB0  09F0               	comf	___awdiv@divisor,f
  4378  0DB1  09F1               	comf	___awdiv@divisor+1,f
  4379  0DB2  0AF0               	incf	___awdiv@divisor,f
  4380  0DB3  1903               	skipnz
  4381  0DB4  0AF1               	incf	___awdiv@divisor+1,f
  4382  0DB5                     l1351:	
  4383  0DB5  01F6               	clrf	___awdiv@sign
  4384  0DB6  0AF6               	incf	___awdiv@sign,f
  4385  0DB7                     l1353:	
  4386  0DB7  1FF3               	btfss	___awdiv@dividend+1,7
  4387  0DB8  2DBA               	goto	u1531
  4388  0DB9  2DBB               	goto	u1530
  4389  0DBA                     u1531:	
  4390  0DBA  2DC4               	goto	l1359
  4391  0DBB                     u1530:	
  4392  0DBB                     l1355:	
  4393  0DBB  09F2               	comf	___awdiv@dividend,f
  4394  0DBC  09F3               	comf	___awdiv@dividend+1,f
  4395  0DBD  0AF2               	incf	___awdiv@dividend,f
  4396  0DBE  1903               	skipnz
  4397  0DBF  0AF3               	incf	___awdiv@dividend+1,f
  4398  0DC0                     l1357:	
  4399  0DC0  3001               	movlw	1
  4400  0DC1  00F4               	movwf	??___awdiv
  4401  0DC2  0874               	movf	??___awdiv,w
  4402  0DC3  06F6               	xorwf	___awdiv@sign,f
  4403  0DC4                     l1359:	
  4404  0DC4  01F7               	clrf	___awdiv@quotient
  4405  0DC5  01F8               	clrf	___awdiv@quotient+1
  4406  0DC6                     l1361:	
  4407  0DC6  0870               	movf	___awdiv@divisor,w
  4408  0DC7  0471               	iorwf	___awdiv@divisor+1,w
  4409  0DC8  1903               	btfsc	3,2
  4410  0DC9  2DCB               	goto	u1541
  4411  0DCA  2DCC               	goto	u1540
  4412  0DCB                     u1541:	
  4413  0DCB  2E03               	goto	l1381
  4414  0DCC                     u1540:	
  4415  0DCC                     l1363:	
  4416  0DCC  01F5               	clrf	___awdiv@counter
  4417  0DCD  0AF5               	incf	___awdiv@counter,f
  4418  0DCE  2DDA               	goto	l1369
  4419  0DCF                     l1365:	
  4420  0DCF  3001               	movlw	1
  4421  0DD0                     u1555:	
  4422  0DD0  1003               	clrc
  4423  0DD1  0DF0               	rlf	___awdiv@divisor,f
  4424  0DD2  0DF1               	rlf	___awdiv@divisor+1,f
  4425  0DD3  3EFF               	addlw	-1
  4426  0DD4  1D03               	skipz
  4427  0DD5  2DD0               	goto	u1555
  4428  0DD6                     l1367:	
  4429  0DD6  3001               	movlw	1
  4430  0DD7  00F4               	movwf	??___awdiv
  4431  0DD8  0874               	movf	??___awdiv,w
  4432  0DD9  07F5               	addwf	___awdiv@counter,f
  4433  0DDA                     l1369:	
  4434  0DDA  1FF1               	btfss	___awdiv@divisor+1,7
  4435  0DDB  2DDD               	goto	u1561
  4436  0DDC  2DDE               	goto	u1560
  4437  0DDD                     u1561:	
  4438  0DDD  2DCF               	goto	l1365
  4439  0DDE                     u1560:	
  4440  0DDE                     l1371:	
  4441  0DDE  3001               	movlw	1
  4442  0DDF                     u1575:	
  4443  0DDF  1003               	clrc
  4444  0DE0  0DF7               	rlf	___awdiv@quotient,f
  4445  0DE1  0DF8               	rlf	___awdiv@quotient+1,f
  4446  0DE2  3EFF               	addlw	-1
  4447  0DE3  1D03               	skipz
  4448  0DE4  2DDF               	goto	u1575
  4449  0DE5  0871               	movf	___awdiv@divisor+1,w
  4450  0DE6  0273               	subwf	___awdiv@dividend+1,w
  4451  0DE7  1D03               	skipz
  4452  0DE8  2DEB               	goto	u1585
  4453  0DE9  0870               	movf	___awdiv@divisor,w
  4454  0DEA  0272               	subwf	___awdiv@dividend,w
  4455  0DEB                     u1585:	
  4456  0DEB  1C03               	skipc
  4457  0DEC  2DEE               	goto	u1581
  4458  0DED  2DEF               	goto	u1580
  4459  0DEE                     u1581:	
  4460  0DEE  2DF6               	goto	l1377
  4461  0DEF                     u1580:	
  4462  0DEF                     l1373:	
  4463  0DEF  0870               	movf	___awdiv@divisor,w
  4464  0DF0  02F2               	subwf	___awdiv@dividend,f
  4465  0DF1  0871               	movf	___awdiv@divisor+1,w
  4466  0DF2  1C03               	skipc
  4467  0DF3  03F3               	decf	___awdiv@dividend+1,f
  4468  0DF4  02F3               	subwf	___awdiv@dividend+1,f
  4469  0DF5                     l1375:	
  4470  0DF5  1477               	bsf	___awdiv@quotient,0
  4471  0DF6                     l1377:	
  4472  0DF6  3001               	movlw	1
  4473  0DF7                     u1595:	
  4474  0DF7  1003               	clrc
  4475  0DF8  0CF1               	rrf	___awdiv@divisor+1,f
  4476  0DF9  0CF0               	rrf	___awdiv@divisor,f
  4477  0DFA  3EFF               	addlw	-1
  4478  0DFB  1D03               	skipz
  4479  0DFC  2DF7               	goto	u1595
  4480  0DFD                     l1379:	
  4481  0DFD  3001               	movlw	1
  4482  0DFE  02F5               	subwf	___awdiv@counter,f
  4483  0DFF  1D03               	btfss	3,2
  4484  0E00  2E02               	goto	u1601
  4485  0E01  2E03               	goto	u1600
  4486  0E02                     u1601:	
  4487  0E02  2DDE               	goto	l1371
  4488  0E03                     u1600:	
  4489  0E03                     l1381:	
  4490  0E03  0876               	movf	___awdiv@sign,w
  4491  0E04  1903               	btfsc	3,2
  4492  0E05  2E07               	goto	u1611
  4493  0E06  2E08               	goto	u1610
  4494  0E07                     u1611:	
  4495  0E07  2E0D               	goto	l1385
  4496  0E08                     u1610:	
  4497  0E08                     l1383:	
  4498  0E08  09F7               	comf	___awdiv@quotient,f
  4499  0E09  09F8               	comf	___awdiv@quotient+1,f
  4500  0E0A  0AF7               	incf	___awdiv@quotient,f
  4501  0E0B  1903               	skipnz
  4502  0E0C  0AF8               	incf	___awdiv@quotient+1,f
  4503  0E0D                     l1385:	
  4504  0E0D  0878               	movf	___awdiv@quotient+1,w
  4505  0E0E  00F1               	movwf	?___awdiv+1
  4506  0E0F  0877               	movf	___awdiv@quotient,w
  4507  0E10  00F0               	movwf	?___awdiv
  4508  0E11                     l312:	
  4509  0E11  0008               	return
  4510  0E12                     __end_of___awdiv:	
  4511                           
  4512                           	psect	text14
  4513  0C78                     __ptext14:	
  4514 ;; *************** function _Lcd_Print_Char *****************
  4515 ;; Defined at:
  4516 ;;		line 58 in file "main.c"
  4517 ;; Parameters:    Size  Location     Type
  4518 ;;  data            1    wreg     unsigned char 
  4519 ;; Auto vars:     Size  Location     Type
  4520 ;;  data            1    2[COMMON] unsigned char 
  4521 ;; Return value:  Size  Location     Type
  4522 ;;                  1    wreg      void 
  4523 ;; Registers used:
  4524 ;;		wreg
  4525 ;; Tracked objects:
  4526 ;;		On entry : 0/0
  4527 ;;		On exit  : 0/0
  4528 ;;		Unchanged: 0/0
  4529 ;; Data sizes:     COMMON   BANK0   BANK1   BANK3   BANK2
  4530 ;;      Params:         0       0       0       0       0
  4531 ;;      Locals:         1       0       0       0       0
  4532 ;;      Temps:          2       0       0       0       0
  4533 ;;      Totals:         3       0       0       0       0
  4534 ;;Total ram usage:        3 bytes
  4535 ;; Hardware stack levels used:    1
  4536 ;; This function calls:
  4537 ;;		Nothing
  4538 ;; This function is called by:
  4539 ;;		_Lcd_Print_Num
  4540 ;;		_Lcd_Print_Float
  4541 ;;		_Lcd_Print_String
  4542 ;; This function uses a non-reentrant model
  4543 ;;
  4544                           
  4545                           
  4546                           ;psect for function _Lcd_Print_Char
  4547  0C78                     _Lcd_Print_Char:	
  4548                           
  4549                           ;incstack = 0
  4550                           ; Regs used in _Lcd_Print_Char: [wreg]
  4551                           ;Lcd_Print_Char@data stored from wreg
  4552  0C78  00F2               	movwf	Lcd_Print_Char@data
  4553  0C79                     l1323:	
  4554                           
  4555                           ;main.c: 58: void Lcd_Print_Char(char data);main.c: 59: {;main.c: 60:     RC0 = 1;
  4556  0C79  1283               	bcf	3,5	;RP0=0, select bank0
  4557  0C7A  1303               	bcf	3,6	;RP1=0, select bank0
  4558  0C7B  1407               	bsf	7,0	;volatile
  4559  0C7C                     l1325:	
  4560                           
  4561                           ;main.c: 61:     PORTB = data;
  4562  0C7C  0872               	movf	Lcd_Print_Char@data,w
  4563  0C7D  0086               	movwf	6	;volatile
  4564  0C7E                     l1327:	
  4565                           
  4566                           ;main.c: 62:     RC2 = 1;
  4567  0C7E  1507               	bsf	7,2	;volatile
  4568                           
  4569                           ;main.c: 63:     _delay((unsigned long)((2)*(20000000/4000.0)));
  4570  0C7F  300D               	movlw	13
  4571  0C80  00F1               	movwf	??_Lcd_Print_Char+1
  4572  0C81  30FB               	movlw	251
  4573  0C82  00F0               	movwf	??_Lcd_Print_Char
  4574  0C83                     u2957:	
  4575  0C83  0BF0               	decfsz	??_Lcd_Print_Char,f
  4576  0C84  2C83               	goto	u2957
  4577  0C85  0BF1               	decfsz	??_Lcd_Print_Char+1,f
  4578  0C86  2C83               	goto	u2957
  4579  0C87  2C88               	nop2
  4580  0C88                     l1329:	
  4581                           
  4582                           ;main.c: 64:     RC2 = 0;
  4583  0C88  1283               	bcf	3,5	;RP0=0, select bank0
  4584  0C89  1303               	bcf	3,6	;RP1=0, select bank0
  4585  0C8A  1107               	bcf	7,2	;volatile
  4586  0C8B                     l47:	
  4587  0C8B  0008               	return
  4588  0C8C                     __end_of_Lcd_Print_Char:	
  4589                           
  4590                           	psect	text15
  4591  0C57                     __ptext15:	
  4592 ;; *************** function _Lcd_Clear *****************
  4593 ;; Defined at:
  4594 ;;		line 41 in file "main.c"
  4595 ;; Parameters:    Size  Location     Type
  4596 ;;		None
  4597 ;; Auto vars:     Size  Location     Type
  4598 ;;		None
  4599 ;; Return value:  Size  Location     Type
  4600 ;;                  2   40[None  ] int 
  4601 ;; Registers used:
  4602 ;;		wreg, status,2, status,0, pclath, cstack
  4603 ;; Tracked objects:
  4604 ;;		On entry : 0/0
  4605 ;;		On exit  : 0/0
  4606 ;;		Unchanged: 0/0
  4607 ;; Data sizes:     COMMON   BANK0   BANK1   BANK3   BANK2
  4608 ;;      Params:         0       0       0       0       0
  4609 ;;      Locals:         0       0       0       0       0
  4610 ;;      Temps:          0       0       0       0       0
  4611 ;;      Totals:         0       0       0       0       0
  4612 ;;Total ram usage:        0 bytes
  4613 ;; Hardware stack levels used:    1
  4614 ;; Hardware stack levels required when called:    1
  4615 ;; This function calls:
  4616 ;;		_Lcd_Cmd
  4617 ;; This function is called by:
  4618 ;;		_main
  4619 ;; This function uses a non-reentrant model
  4620 ;;
  4621                           
  4622                           
  4623                           ;psect for function _Lcd_Clear
  4624  0C57                     _Lcd_Clear:	
  4625  0C57                     l1901:	
  4626                           ;incstack = 0
  4627                           ; Regs used in _Lcd_Clear: [wreg+status,2+status,0+pclath+cstack]
  4628                           
  4629                           
  4630                           ;main.c: 43:     Lcd_Cmd(0);
  4631  0C57  3000               	movlw	0
  4632  0C58  120A  158A  2464  120A  158A  	fcall	_Lcd_Cmd
  4633                           
  4634                           ;main.c: 44:     Lcd_Cmd(1);
  4635  0C5D  3001               	movlw	1
  4636  0C5E  120A  158A  2464  120A  158A  	fcall	_Lcd_Cmd
  4637  0C63                     l41:	
  4638  0C63  0008               	return
  4639  0C64                     __end_of_Lcd_Clear:	
  4640                           
  4641                           	psect	text16
  4642  0C64                     __ptext16:	
  4643 ;; *************** function _Lcd_Cmd *****************
  4644 ;; Defined at:
  4645 ;;		line 32 in file "main.c"
  4646 ;; Parameters:    Size  Location     Type
  4647 ;;  a               1    wreg     unsigned char 
  4648 ;; Auto vars:     Size  Location     Type
  4649 ;;  a               1    2[COMMON] unsigned char 
  4650 ;; Return value:  Size  Location     Type
  4651 ;;                  1    wreg      void 
  4652 ;; Registers used:
  4653 ;;		wreg
  4654 ;; Tracked objects:
  4655 ;;		On entry : 0/0
  4656 ;;		On exit  : 0/0
  4657 ;;		Unchanged: 0/0
  4658 ;; Data sizes:     COMMON   BANK0   BANK1   BANK3   BANK2
  4659 ;;      Params:         0       0       0       0       0
  4660 ;;      Locals:         1       0       0       0       0
  4661 ;;      Temps:          2       0       0       0       0
  4662 ;;      Totals:         3       0       0       0       0
  4663 ;;Total ram usage:        3 bytes
  4664 ;; Hardware stack levels used:    1
  4665 ;; This function calls:
  4666 ;;		Nothing
  4667 ;; This function is called by:
  4668 ;;		_Lcd_Clear
  4669 ;;		_Lcd_Start
  4670 ;;		_main
  4671 ;; This function uses a non-reentrant model
  4672 ;;
  4673                           
  4674                           
  4675                           ;psect for function _Lcd_Cmd
  4676  0C64                     _Lcd_Cmd:	
  4677                           
  4678                           ;incstack = 0
  4679                           ; Regs used in _Lcd_Cmd: [wreg]
  4680                           ;Lcd_Cmd@a stored from wreg
  4681  0C64  00F2               	movwf	Lcd_Cmd@a
  4682  0C65                     l1635:	
  4683                           
  4684                           ;main.c: 32: void Lcd_Cmd(char a);main.c: 33: {;main.c: 34:     RC0 = 0;
  4685  0C65  1283               	bcf	3,5	;RP0=0, select bank0
  4686  0C66  1303               	bcf	3,6	;RP1=0, select bank0
  4687  0C67  1007               	bcf	7,0	;volatile
  4688  0C68                     l1637:	
  4689                           
  4690                           ;main.c: 35:     PORTB = a;
  4691  0C68  0872               	movf	Lcd_Cmd@a,w
  4692  0C69  0086               	movwf	6	;volatile
  4693  0C6A                     l1639:	
  4694                           
  4695                           ;main.c: 36:     RC2 = 1;
  4696  0C6A  1507               	bsf	7,2	;volatile
  4697                           
  4698                           ;main.c: 37:         _delay((unsigned long)((4)*(20000000/4000.0)));
  4699  0C6B  301A               	movlw	26
  4700  0C6C  00F1               	movwf	??_Lcd_Cmd+1
  4701  0C6D  30F8               	movlw	248
  4702  0C6E  00F0               	movwf	??_Lcd_Cmd
  4703  0C6F                     u2967:	
  4704  0C6F  0BF0               	decfsz	??_Lcd_Cmd,f
  4705  0C70  2C6F               	goto	u2967
  4706  0C71  0BF1               	decfsz	??_Lcd_Cmd+1,f
  4707  0C72  2C6F               	goto	u2967
  4708  0C73  0000               	nop
  4709  0C74                     l1641:	
  4710                           
  4711                           ;main.c: 38:         RC2 = 0;
  4712  0C74  1283               	bcf	3,5	;RP0=0, select bank0
  4713  0C75  1303               	bcf	3,6	;RP1=0, select bank0
  4714  0C76  1107               	bcf	7,2	;volatile
  4715  0C77                     l38:	
  4716  0C77  0008               	return
  4717  0C78                     __end_of_Lcd_Cmd:	
  4718                           
  4719                           	psect	text17
  4720  0CFC                     __ptext17:	
  4721 ;; *************** function _ADC_Read *****************
  4722 ;; Defined at:
  4723 ;;		line 23 in file "main.c"
  4724 ;; Parameters:    Size  Location     Type
  4725 ;;  channel         1    wreg     unsigned char 
  4726 ;; Auto vars:     Size  Location     Type
  4727 ;;  channel         1    4[COMMON] unsigned char 
  4728 ;; Return value:  Size  Location     Type
  4729 ;;                  2    0[COMMON] int 
  4730 ;; Registers used:
  4731 ;;		wreg, status,2, status,0
  4732 ;; Tracked objects:
  4733 ;;		On entry : 0/0
  4734 ;;		On exit  : 0/0
  4735 ;;		Unchanged: 0/0
  4736 ;; Data sizes:     COMMON   BANK0   BANK1   BANK3   BANK2
  4737 ;;      Params:         2       0       0       0       0
  4738 ;;      Locals:         1       0       0       0       0
  4739 ;;      Temps:          2       0       0       0       0
  4740 ;;      Totals:         5       0       0       0       0
  4741 ;;Total ram usage:        5 bytes
  4742 ;; Hardware stack levels used:    1
  4743 ;; This function calls:
  4744 ;;		Nothing
  4745 ;; This function is called by:
  4746 ;;		_main
  4747 ;; This function uses a non-reentrant model
  4748 ;;
  4749                           
  4750                           
  4751                           ;psect for function _ADC_Read
  4752  0CFC                     _ADC_Read:	
  4753                           
  4754                           ;incstack = 0
  4755                           ; Regs used in _ADC_Read: [wreg+status,2+status,0]
  4756                           ;ADC_Read@channel stored from wreg
  4757  0CFC  00F4               	movwf	ADC_Read@channel
  4758  0CFD                     l1891:	
  4759                           
  4760                           ;main.c: 24:     ADCON0 &= 0b11000101;
  4761  0CFD  30C5               	movlw	197
  4762  0CFE  00F2               	movwf	??_ADC_Read
  4763  0CFF  0872               	movf	??_ADC_Read,w
  4764  0D00  1283               	bcf	3,5	;RP0=0, select bank0
  4765  0D01  1303               	bcf	3,6	;RP1=0, select bank0
  4766  0D02  059F               	andwf	31,f	;volatile
  4767                           
  4768                           ;main.c: 25:     ADCON0 |= channel << 3;
  4769  0D03  0874               	movf	ADC_Read@channel,w	;volatile
  4770  0D04  00F2               	movwf	??_ADC_Read
  4771  0D05  3002               	movlw	2
  4772  0D06                     u2835:	
  4773  0D06  1003               	clrc
  4774  0D07  0DF2               	rlf	??_ADC_Read,f
  4775  0D08  3EFF               	addlw	-1
  4776  0D09  1D03               	skipz
  4777  0D0A  2D06               	goto	u2835
  4778  0D0B  1003               	clrc
  4779  0D0C  0D72               	rlf	??_ADC_Read,w
  4780  0D0D  00F3               	movwf	??_ADC_Read+1
  4781  0D0E  0873               	movf	??_ADC_Read+1,w
  4782  0D0F  049F               	iorwf	31,f	;volatile
  4783  0D10                     l1893:	
  4784                           
  4785                           ;main.c: 26:     _delay((unsigned long)((4)*(20000000/4000.0)));
  4786  0D10  301A               	movlw	26
  4787  0D11  00F3               	movwf	??_ADC_Read+1
  4788  0D12  30F8               	movlw	248
  4789  0D13  00F2               	movwf	??_ADC_Read
  4790  0D14                     u2977:	
  4791  0D14  0BF2               	decfsz	??_ADC_Read,f
  4792  0D15  2D14               	goto	u2977
  4793  0D16  0BF3               	decfsz	??_ADC_Read+1,f
  4794  0D17  2D14               	goto	u2977
  4795  0D18  0000               	nop
  4796  0D19                     l1895:	
  4797                           
  4798                           ;main.c: 27:     GO_nDONE = 1;
  4799  0D19  1283               	bcf	3,5	;RP0=0, select bank0
  4800  0D1A  1303               	bcf	3,6	;RP1=0, select bank0
  4801  0D1B  151F               	bsf	31,2	;volatile
  4802  0D1C                     l32:	
  4803                           ;main.c: 28:     while(GO_nDONE);
  4804                           
  4805  0D1C  191F               	btfsc	31,2	;volatile
  4806  0D1D  2D1F               	goto	u2841
  4807  0D1E  2D20               	goto	u2840
  4808  0D1F                     u2841:	
  4809  0D1F  2D1C               	goto	l32
  4810  0D20                     u2840:	
  4811  0D20                     l1897:	
  4812                           
  4813                           ;main.c: 29:     return ((ADRESH<<8)+ADRESL);
  4814  0D20  081E               	movf	30,w	;volatile
  4815  0D21  00F1               	movwf	?_ADC_Read+1
  4816  0D22  1683               	bsf	3,5	;RP0=1, select bank1
  4817  0D23  1303               	bcf	3,6	;RP1=0, select bank1
  4818  0D24  081E               	movf	30,w	;volatile
  4819  0D25  00F0               	movwf	?_ADC_Read
  4820  0D26                     l35:	
  4821  0D26  0008               	return
  4822  0D27                     __end_of_ADC_Read:	
  4823                           
  4824                           	psect	text18
  4825  0005                     __ptext18:	
  4826 ;; *************** function _ADC_Init *****************
  4827 ;; Defined at:
  4828 ;;		line 18 in file "main.c"
  4829 ;; Parameters:    Size  Location     Type
  4830 ;;		None
  4831 ;; Auto vars:     Size  Location     Type
  4832 ;;		None
  4833 ;; Return value:  Size  Location     Type
  4834 ;;                  1    wreg      void 
  4835 ;; Registers used:
  4836 ;;		wreg
  4837 ;; Tracked objects:
  4838 ;;		On entry : 0/0
  4839 ;;		On exit  : 0/0
  4840 ;;		Unchanged: 0/0
  4841 ;; Data sizes:     COMMON   BANK0   BANK1   BANK3   BANK2
  4842 ;;      Params:         0       0       0       0       0
  4843 ;;      Locals:         0       0       0       0       0
  4844 ;;      Temps:          0       0       0       0       0
  4845 ;;      Totals:         0       0       0       0       0
  4846 ;;Total ram usage:        0 bytes
  4847 ;; Hardware stack levels used:    1
  4848 ;; This function calls:
  4849 ;;		Nothing
  4850 ;; This function is called by:
  4851 ;;		_main
  4852 ;; This function uses a non-reentrant model
  4853 ;;
  4854                           
  4855                           
  4856                           ;psect for function _ADC_Init
  4857  0005                     _ADC_Init:	
  4858  0005                     l1889:	
  4859                           ;incstack = 0
  4860                           ; Regs used in _ADC_Init: [wreg]
  4861                           
  4862                           
  4863                           ;main.c: 19:     ADCON0 = 0b01000001;
  4864  0005  3041               	movlw	65
  4865  0006  1283               	bcf	3,5	;RP0=0, select bank0
  4866  0007  1303               	bcf	3,6	;RP1=0, select bank0
  4867  0008  009F               	movwf	31	;volatile
  4868                           
  4869                           ;main.c: 20:     ADCON1 = 0b11000000;
  4870  0009  30C0               	movlw	192
  4871  000A  1683               	bsf	3,5	;RP0=1, select bank1
  4872  000B  1303               	bcf	3,6	;RP1=0, select bank1
  4873  000C  009F               	movwf	31	;volatile
  4874  000D                     l29:	
  4875  000D  0008               	return
  4876  000E                     __end_of_ADC_Init:	
  4877  007E                     btemp	set	126	;btemp
  4878  007E                     wtemp0	set	126


Data Sizes:
    Strings     0
    Constant    0
    Data        0
    BSS         0
    Persistent  0
    Stack       0

Auto Spaces:
    Space          Size  Autos    Used
    COMMON           14     14      14
    BANK0            80     77      77
    BANK1            80      6       6
    BANK3            96      0       0
    BANK2            96      0       0

Pointer List with Targets:

    None.

Critical Paths under _main in COMMON

    _Lcd_Start->_Lcd_Cmd
    _Lcd_Print_Float->___fltol
    ___xxtofl->___fltol
    ___flsub->___fladd
    ___flmul->___fltol
    _Lcd_Print_Num->___fltol
    _Lcd_Clear->_Lcd_Cmd

Critical Paths under _main in BANK0

    _main->_Lcd_Print_Float
    _Lcd_Print_Float->___flmul
    ___xxtofl->___fltol
    ___fltol->___flsub
    ___flsub->___fladd
    ___flmul->___xxtofl
    _Lcd_Print_Num->___fltol

Critical Paths under _main in BANK1

    None.

Critical Paths under _main in BANK3

    None.

Critical Paths under _main in BANK2

    None.

Call Graph Tables:

 ---------------------------------------------------------------------------------
 (Depth) Function   	        Calls       Base Space   Used Autos Params    Refs
 ---------------------------------------------------------------------------------
 (0) _main                                                 6     6      0   11826
                                              0 BANK1      6     6      0
                           _ADC_Init
                           _ADC_Read
                          _Lcd_Clear
                            _Lcd_Cmd
                    _Lcd_Print_Float
                          _Lcd_Start
                             ___flge
                            ___flmul
                           ___xxtofl
 ---------------------------------------------------------------------------------
 (1) ___flge                                              12     4      8     486
                                              0 COMMON    12     4      8
 ---------------------------------------------------------------------------------
 (1) _Lcd_Start                                            0     0      0      22
                            _Lcd_Cmd
 ---------------------------------------------------------------------------------
 (1) _Lcd_Print_Float                                     12     8      4    8065
                                             65 BANK0     12     8      4
                     _Lcd_Print_Char
                      _Lcd_Print_Num
                            ___flmul
                            ___flsub
                            ___fltol
                           ___xxtofl
 ---------------------------------------------------------------------------------
 (1) ___xxtofl                                            14    10      4     550
                                             25 BANK0     14    10      4
                          __Umul8_16 (ARG)
                            ___flsub (ARG)
                            ___fltol (ARG)
 ---------------------------------------------------------------------------------
 (2) ___fltol                                             11     7      4     533
                                             12 COMMON     2     2      0
                                             16 BANK0      9     5      4
                          __Umul8_16 (ARG)
                            ___flsub (ARG)
 ---------------------------------------------------------------------------------
 (2) ___flsub                                              8     0      8    2333
                                              8 BANK0      8     0      8
                            ___fladd
 ---------------------------------------------------------------------------------
 (3) ___fladd                                             20    12      8    2136
                                              0 COMMON    12     4      8
                                              0 BANK0      8     8      0
 ---------------------------------------------------------------------------------
 (1) ___flmul                                             26    18      8    2569
                                             39 BANK0     26    18      8
                          __Umul8_16
                            ___flsub (ARG)
                            ___fltol (ARG)
                           ___xxtofl (ARG)
 ---------------------------------------------------------------------------------
 (2) __Umul8_16                                            9     7      2     799
                                              0 COMMON     9     7      2
 ---------------------------------------------------------------------------------
 (2) _Lcd_Print_Num                                        8     6      2    1870
                                             25 BANK0      8     6      2
                     _Lcd_Print_Char
                            ___awdiv
                            ___awmod
                            ___fltol (ARG)
                             ___wmul
 ---------------------------------------------------------------------------------
 (3) ___wmul                                               6     2      4     244
                                              0 COMMON     6     2      4
 ---------------------------------------------------------------------------------
 (3) ___awmod                                              7     3      4     600
                                              0 COMMON     7     3      4
 ---------------------------------------------------------------------------------
 (3) ___awdiv                                              9     5      4     604
                                              0 COMMON     9     5      4
 ---------------------------------------------------------------------------------
 (3) _Lcd_Print_Char                                       3     3      0      22
                                              0 COMMON     3     3      0
 ---------------------------------------------------------------------------------
 (1) _Lcd_Clear                                            0     0      0      22
                            _Lcd_Cmd
 ---------------------------------------------------------------------------------
 (2) _Lcd_Cmd                                              3     3      0      22
                                              0 COMMON     3     3      0
 ---------------------------------------------------------------------------------
 (1) _ADC_Read                                             5     3      2      22
                                              0 COMMON     5     3      2
 ---------------------------------------------------------------------------------
 (1) _ADC_Init                                             0     0      0       0
 ---------------------------------------------------------------------------------
 Estimated maximum stack depth 3
 ---------------------------------------------------------------------------------

 Call Graph Graphs:

 _main (ROOT)
   _ADC_Init
   _ADC_Read
   _Lcd_Clear
     _Lcd_Cmd
   _Lcd_Cmd
   _Lcd_Print_Float
     _Lcd_Print_Char
     _Lcd_Print_Num
       _Lcd_Print_Char
       ___awdiv
       ___awmod
       ___fltol (ARG)
         __Umul8_16 (ARG)
         ___flsub (ARG)
           ___fladd
       ___wmul (ARG)
     ___flmul
       __Umul8_16
       ___flsub (ARG)
         ___fladd
       ___fltol (ARG)
         __Umul8_16 (ARG)
         ___flsub (ARG)
           ___fladd
       ___xxtofl (ARG)
         __Umul8_16 (ARG)
         ___flsub (ARG)
           ___fladd
         ___fltol (ARG)
           __Umul8_16 (ARG)
           ___flsub (ARG)
             ___fladd
     ___flsub
       ___fladd
     ___fltol
       __Umul8_16 (ARG)
       ___flsub (ARG)
         ___fladd
     ___xxtofl
       __Umul8_16 (ARG)
       ___flsub (ARG)
         ___fladd
       ___fltol (ARG)
         __Umul8_16 (ARG)
         ___flsub (ARG)
           ___fladd
   _Lcd_Start
     _Lcd_Cmd
   ___flge
   ___flmul
     __Umul8_16
     ___flsub (ARG)
       ___fladd
     ___fltol (ARG)
       __Umul8_16 (ARG)
       ___flsub (ARG)
         ___fladd
     ___xxtofl (ARG)
       __Umul8_16 (ARG)
       ___flsub (ARG)
         ___fladd
       ___fltol (ARG)
         __Umul8_16 (ARG)
         ___flsub (ARG)
           ___fladd
   ___xxtofl
     __Umul8_16 (ARG)
     ___flsub (ARG)
       ___fladd
     ___fltol (ARG)
       __Umul8_16 (ARG)
       ___flsub (ARG)
         ___fladd

 Address spaces:
Name               Size   Autos  Total    Cost      Usage
BITCOMMON            E      0       0       0        0.0%
EEDATA             100      0       0       0        0.0%
NULL                 0      0       0       0        0.0%
CODE                 0      0       0       0        0.0%
COMMON               E      E       E       1      100.0%
BITSFR0              0      0       0       1        0.0%
SFR0                 0      0       0       1        0.0%
BITSFR1              0      0       0       2        0.0%
SFR1                 0      0       0       2        0.0%
STACK                0      0       0       2        0.0%
ABS                  0      0       0       3        0.0%
BITBANK0            50      0       0       4        0.0%
BITSFR3              0      0       0       4        0.0%
SFR3                 0      0       0       4        0.0%
BANK0               50     4D      4D       5       96.3%
BITSFR2              0      0       0       5        0.0%
SFR2                 0      0       0       5        0.0%
BITBANK1            50      0       0       6        0.0%
BANK1               50      6       6       7        7.5%
BITBANK3            60      0       0       8        0.0%
BANK3               60      0       0       9        0.0%
BITBANK2            60      0       0      10        0.0%
BANK2               60      0       0      11        0.0%
DATA                 0      0       0      12        0.0%


Microchip Technology PIC Macro Assembler V2.10 build 88905656 
Symbol Table                                                                                   Fri Jan 24 09:30:04 2020

                      l32 0D1C                        l41 0C63                        l35 0D26  
                      l60 0EA4                        l44 0D51                        l29 000D  
                      l38 0C77                        l47 0C8B                        l63 0FFF  
                      l69 01EF              ___awdiv@sign 0076       ___wmul@multiplicand 0072  
     __Umul8_16@word_mpld 0076                       l312 0E11                       l161 0CD4  
                     l325 0DAA                       l333 0EC1                       l159 0CBC  
                     l352 0074                       l600 011B                       l336 0F2D  
                     l345 0089                       l337 0F46                       l355 0089  
                     l452 0266                       l605 0CE9                       l607 0CFB  
                     l560 07EF                       l456 030F                       l473 03E0  
                     l465 049A                       l554 0767                       l458 02E4  
                     l483 0428                       l548 07FB                       l477 0406  
                     l494 048C                       l486 0468                       l495 049A  
                     l592 00F3                       l498 0CAF                       l586 00AE  
                     l588 0145                       l599 010F                       _RC0 0038  
                     _RC2 003A                       _RD0 0040              ___awmod@sign 0076  
            ___flmul@aexp 0059              ___flmul@bexp 005A              ___flmul@sign 0054  
            ___flmul@temp 005F              ___flmul@prod 005B              ___fltol@exp1 007D  
                    l1401 0D67                      l1323 0C79                      l1411 0D7F  
                    l1403 0D6D                      l1331 0CB0                      l1325 0C7C  
                    l1421 0DA1                      l1413 0D89                      l1405 0D70  
                    l1341 0CD0                      l1333 0CB2                      l1501 02A8  
                    l1327 0C7E                      l1351 0DB5                      l1423 0DA6  
                    l1415 0D8F                      l1407 0D77                      l1335 0CB6  
                    l1511 02E8                      l1503 02AC                      l1431 0210  
                    l1329 0C88                      l1361 0DC6                      l1353 0DB7  
                    l1345 0DAB                      l1417 0D96                      l1409 0D7B  
                    l1337 0CC3                      l1601 0464                      l1521 0305  
                    l1513 02F3                      l1505 02B0                      l1441 0227  
                    l1433 0214                      l1371 0DDE                      l1363 0DCC  
                    l1355 0DBB                      l1347 0DAC                      l1419 0D9C  
                    l1339 0CCA                      l1611 0480                      l1603 046D  
                    l1531 0321                      l1515 02F5                      l1523 0309  
                    l1507 02B1                      l1451 023D                      l1443 0228  
                    l1435 0215                      l1427 0203                      l1373 0DEF  
                    l1365 0DCF                      l1381 0E03                      l1357 0DC0  
                    l1349 0DB0                      l1621 0CD6                      l1613 0484  
                    l1605 0472                      l1541 034D                      l1533 0338  
                    l1525 0313                      l1517 02F9                      l1509 02C8  
                    l1461 024E                      l1453 023E                      l1437 021A  
                    l1445 022A                      l1429 020A                      l1701 0C90  
                    l1383 0E08                      l1375 0DF5                      l1367 0DD6  
                    l1359 0DC4                      l1391 0D53                      l1631 0CF7  
                    l1623 0CD8                      l1711 04AC                      l1615 0486  
                    l1607 047A                      l1551 0378                      l1543 0351  
                    l1535 033C                      l1527 0318                      l1519 02FA  
                    l1471 026C                      l1463 0253                      l1455 0244  
                    l1447 0232                      l1439 021F                      l1641 0C74  
                    l1385 0E0D                      l1377 0DF6                      l1369 0DDA  
                    l1393 0D57                      l1625 0CDF                      l1801 0747  
                    l1721 04C1                      l1713 04AD                      l1705 049B  
                    l1617 0495                      l1609 047F                      l1561 03E8  
                    l1553 03B8                      l1545 0352                      l1537 0340  
                    l1481 0280                      l1473 0270                      l1465 025B  
                    l1457 0248                      l1449 0237                      l1635 0C65  
                    l1379 0DFD                      l1395 0D5C                      l1651 0E28  
                    l1643 0E12                      l1627 0CE3                      l1803 074B  
                    l1731 04D9                      l1723 04C9                      l1715 04B2  
                    l1707 04A2                      l1619 0499                      l1571 0405  
                    l1563 03ED                      l1555 03BE                      l1547 035D  
                    l1539 034B                      l1491 0294                      l1483 0284  
                    l1475 0274                      l1467 025C                      l1459 0249  
                    l1637 0C68                      l1901 0C57                      l1397 0D5E  
                    l1389 0D52                      l1645 0E18                      l1629 0CF2  
                    l1821 079C                      l1813 076C                      l1805 074C  
                    l1741 04F5                      l1733 04DE                      l1725 04CE  
                    l1717 04B7                      l1709 04A8                      l1573 040A  
                    l1581 0416                      l1557 03C3                      l1549 0362  
                    l1493 0298                      l1485 0288                      l1477 0278  
                    l1469 025E                      l1639 0C6A                      l1399 0D62  
                    l1655 0E68                      l1647 0E1A                      l1831 07D3  
                    l1815 0771                      l1823 07A2                      l1807 0750  
                    l1751 0518                      l1743 04FA                      l1735 04E3  
                    l1727 04D4                      l1719 04BF                      l1575 040D  
                    l1567 03F6                      l1559 03D2                      l1583 041A  
                    l1495 029C                      l1487 028C                      l1479 027C  
                    l1671 0039                      l1663 000E                      l1911 0FE5  
                    l1903 0D27                      l1841 07F3                      l1833 07D5  
                    l1825 07AF                      l1817 077F                      l1809 0764  
                    l1761 05A6                      l1753 0525                      l1745 04FF  
                    l1737 04EB                      l1729 04D8                      l1593 042D  
                    l1585 041B                      l1577 040F                      l1569 0401  
                    l1497 02A0                      l1489 0290                      l1673 003A  
                    l1665 001B                      l1905 0F47                      l1921 0EE1  
                    l1913 0EA5                      l1659 0E78                      l1835 07E3  
                    l1827 07BA                      l1819 0783                      l1771 0608  
                    l1763 05C2                      l1755 0542                      l1739 04ED  
                    l1595 0432                      l1587 041F                      l1579 0414  
                    l1499 02A4                      l1675 0042                      l1851 00A6  
                    l1907 0F71                      l1923 0F05                      l1915 0EB9  
                    l1837 07E7                      l1829 07C9                      l1781 0698  
                    l1773 0625                      l1765 05CB                      l1757 055E  
                    l1749 0508                      l1597 0440                      l1589 0425  
                    l1693 0069                      l1685 0050                      l1677 0044  
                    l1669 0024                      l1861 00D1                      l1853 00B6  
                    l1845 008D                      l1909 0FC7                      l1925 0F09  
                    l1917 0ED5                      l1941 0146                      l1839 07E8  
                    l1791 072A                      l1783 06C5                      l1775 063E  
                    l1767 05DB                      l1759 058A                      l1599 0444  
                    l1695 0079                      l1679 0048                      l1687 0062  
                    l1871 0105                      l1863 00D8                      l1847 0092  
                    l1927 0F43                      l1919 0EDD                      l1951 015D  
                    l1943 014B                      l1793 0733                      l1785 06EB  
                    l1777 065B                      l1769 05F8                      l1697 007E  
                    l1881 0138                      l1873 0109                      l1865 00DC  
                    l1857 00BF                      l1849 0096                      l1929 0F45  
                    l1961 01EB                      l1953 0163                      l1945 014E  
                    l1891 0CFD                      l1795 0737                      l1787 0713  
                    l1779 0688                      l1699 0C8C                      l1883 013C  
                    l1875 0113                      l1867 00EA                      l1859 00C4  
                    l1963 01F2                      l1955 016F                      l1947 0153  
                    l1893 0D10                      l1797 0738                      l1789 071C  
                    l1885 013D                      l1877 011D                      l1869 00FA  
                    l1957 01B7                      l1949 0158                      l1895 0D19  
                    l1799 0741                      l1879 0133                      l1959 01D0  
                    l1889 0005                      l1897 0D20                      u2010 0405  
                    u2011 0404                      u2100 0455                      u2020 040A  
                    u2021 0409                      u2005 03FA                      u2110 0464  
                    u2030 0414                      u2111 0463                      u2031 0413  
                    u2200 0E27                      u2120 046D                      u2040 041A  
                    u2201 0E26                      u2121 046C                      u2105 0450  
                    u2041 0419                      u2210 0E77                      u2130 0472  
                    u2050 041F                      u2211 0E76                      u2131 0471  
                    u2051 041E                      u2140 047F                      u2060 0425  
                    u2300 0079                      u2220 001B                      u2205 0E23  
                    u2141 047E                      u2061 0424                      u2301 0078  
                    u2221 001A                      u1510 0CD0                      u2150 0484  
                    u2070 042C                      u2310 007E                      u2230 0032  
                    u1511 0CCF                      u2215 0E73                      u2151 0483  
                    u2071 042B                      u2311 007D                      u1600 0E03  
                    u1520 0DB0                      u2320 04AC                      u2160 0499  
                    u2080 0432                      u2240 0048                      u1601 0E02  
                    u1521 0DAF                      u1505 0CC4                      u2401 0550  
                    u2321 04AB                      u2161 0498                      u2081 0431  
                    u2241 0047                      u1610 0E08                      u1530 0DBB  
                    u2170 0CE3                      u2402 0557                      u2330 04B2  
                    u2090 0444                      u2250 004F                      u1611 0E07  
                    u1531 0DBA                      u2171 0CE2                      u2411 056C  
                    u2403 055E                      u2331 04B1                      u2091 0443  
                    u2251 004E                      u2235 002D                      u1540 0DCC  
                    u1700 0DA1                      u1620 0D57                      u2412 0573  
                    u2340 04B7                      u1541 0DCB                      u1701 0DA0  
                    u1621 0D56                      u2501 06A7                      u2421 0598  
                    u2413 057A                      u2341 04B6                      u1630 0D62  
                    u2190 0CF7                      u2510 06D1                      u2502 06AE  
                    u2422 059F                      u2350 04D8                      u1710 0214  
                    u2270 0061                      u1631 0D61                      u2191 0CF6  
                    u2503 06B5                      u2431 05B4                      u2423 05A6  
                    u2351 04D7                      u1711 0213                      u2271 0060  
                    u1560 0DDE                      u1640 0D6D                      u1480 0CB6  
                    u2600 0750                      u2432 05BB                      u2360 04DE  
                    u1800 02C8                      u1720 021A                      u2280 0068  
                    u1561 0DDD                      u1641 0D6C                      u1481 0CB5  
                    u2185 0CEA                      u2601 074F                      u2521 06DD  
                    u2433 05C2                      u2361 04DD                      u1801 02C7  
                    u1721 0219                      u2281 0067                      u2265 0051  
                    u2610 0764                      u2530 06F9                      u2522 06E4  
                    u2370 04E3                      u1810 02D1                      u1730 021F  
                    u1555 0DD0                      u2611 0763                      u2523 06EB  
                    u2515 06CC                      u2451 05EA                      u2371 04E2  
                    u1811 02CF                      u1731 021E                      u1580 0DEF  
                    u1660 0D7F                      u2620 076B                      u2452 05F1  
                    u2380 04FA                      u1900 033C                      u1820 02D2  
                    u1740 023D                      u2700 0096                      u1581 0DEE  
                    u1661 0D7E                      u2621 076A                      u2541 0705  
                    u2461 0617                      u2453 05F8                      u2445 05C4  
                    u2381 04F9                      u1901 033B                      u1805 02C4  
                    u1741 023C                      u2701 0095                      u1670 0D89  
                    u2630 0771                      u2542 070C                      u2462 061E  
                    u2390 04FF                      u1910 0340                      u1830 02E8  
                    u1750 0248                      u2710 00B6                      u1575 0DDF  
                    u1671 0D88                      u1655 0D71                      u1495 0CBD  
                    u2631 0770                      u2543 0713                      u2535 06F4  
                    u2463 0625                      u2391 04FE                      u1911 033F  
                    u1831 02E7                      u1751 0247                      u2295 006B  
                    u2711 00B5                      u2640 0783                      u1920 0351  
                    u1840 02F9                      u1760 024E                      u2800 0128  
                    u1585 0DEB                      u2641 0782                      u2481 064D  
                    u1921 0350                      u1841 02F8                      u1761 024D  
                    u1690 0D9C                      u2650 0792                      u2570 0737  
                    u2482 0654                      u1770 0253                      u2810 0138  
                    u2730 00D7                      u1595 0DF7                      u1691 0D9B  
                    u1675 0D85                      u2571 0736                      u2555 0715  
                    u2491 067A                      u2483 065B                      u2475 0627  
                    u1771 0252                      u2811 0137                      u2731 00D6  
                    u2660 07AF                      u2492 0681                      u1940 0378  
                    u1860 030F                      u1780 026C                      u2820 013C  
                    u1685 0D90                      u2661 07AE                      u2565 072C  
                    u2493 0688                      u1941 0377                      u1861 030E  
                    u1781 026B                      u2821 013B                      u2805 0123  
                    u2725 00C9                      u2901 0F18                      u2670 07C9  
                    u2590 074B                      u1870 0313                      u1790 0270  
                    u2750 00F9                      u2910 0F43                      u2902 0F19  
                    u2671 07C8                      u2655 078D                      u2591 074A  
                    u1951 0391                      u1943 0374                      u1935 0356  
                    u1871 0312                      u1855 02FE                      u1791 026F  
                    u2751 00F8                      u2911 0F42                      u2903 0F1E  
                    u2840 0D20                      u2680 07E7                      u1960 03A5  
                    u1952 0392                      u1880 0318                      u2904 0F1F  
                    u2841 0D1F                      u2681 07E6                      u2665 07AB  
                    u2585 073A                      u1961 03A6                      u1953 0397  
                    u1881 0317                      u2745 00EB                      u2905 0F24  
                    u1970 03C3                      u1962 03AB                      u1954 0398  
                    u2770 0109                      u2690 0092                      u2906 0F25  
                    u2850 0EB9                      u2930 01D0                      u2835 0D06  
                    u2675 07C5                      u1971 03C2                      u1963 03AC  
                    u1955 039D                      u1891 032A                      u2771 0108  
                    u2691 0091                      u2915 0F3F                      u2851 0EB8  
                    u2931 01CF                      u1980 03E8                      u1956 039E  
                    u1892 0331                      u2780 010F                      u2860 0ED5  
                    u2940 01EB                      u1981 03E7                      u1893 0338  
                    u2781 010E                      u2765 00FE                      u2861 0ED4  
                    u2941 01EA                      u1990 03ED                      u2790 0113  
                    u2870 0EE1                      u1991 03EC                      u2791 0112  
                    u2871 0EE0                      u2881 0EF0                      u2890 0F09  
                    u2882 0EF1                      u2891 0F08                      u2883 0EF6  
                    u2884 0EF7                      u2957 0C83                      u2885 0EFC  
                    u2886 0EFD                      u2967 0C6F                      u2977 0D14  
                    _main 0146                      btemp 007E          __end_of_ADC_Init 000E  
        __end_of_ADC_Read 0D27                      start 0000        Lcd_Print_Char@data 0072  
         __end_of_Lcd_Cmd 0C78             ___fltol@sign1 007C           __end_of___fladd 049B  
                   ?_main 0070           __end_of___awdiv 0E12           __end_of___awmod 0DAB  
         __end_of___flmul 07FC           __end_of___flsub 0CB0           __end_of___fltol 008A  
         ___awdiv@divisor 0070           ___awdiv@counter 0075                     _PORTB 0006  
                   _TRISB 0086                     _TRISC 0087                     _TRISD 0088  
                   status 0003                     wtemp0 007E   __size_of_Lcd_Print_Char 0014  
         __initialization 07FC              __end_of_main 0203                    ??_main 007E  
      __size_of_Lcd_Clear 000D        __size_of_Lcd_Start 002B                    _ADCON0 001F  
                  _ADCON1 009F                    _ADRESH 001E                    _ADRESL 009E  
        ___awdiv@dividend 0072                 ??_Lcd_Cmd 0070          __end_of___xxtofl 0146  
   __end_of_Lcd_Print_Num 0EA5                    ___flge 0EA5                 ??___fladd 0020  
                  ___wmul 0CB0                 ??___awdiv 0074                 ??___awmod 0074  
               ??___flmul 004F                 ??___flsub 007C                 ??___fltol 0034  
         ADC_Read@channel 0074          ___awdiv@quotient 0077           ___awmod@divisor 0070  
         ___awmod@counter 0075        __size_of__Umul8_16 0027                 ?_ADC_Init 0070  
               ?_ADC_Read 0070                ___flge@ff1 0070                ___flge@ff2 0074  
            ___xxtofl@arg 0043              ___xxtofl@exp 0042              ___xxtofl@val 0039  
 __end_of__initialization 07FC         __end_of_Lcd_Clear 0C64  __size_of_Lcd_Print_Float 00B9  
              ___fltol@f1 0030         __end_of_Lcd_Start 0D52            __pcstackCOMMON 0070  
              ??_ADC_Init 0070                ??_ADC_Read 0072            _Lcd_Print_Char 0C78  
       __end_of__Umul8_16 0CFC                __pmaintext 0146                   ?___flge 0070  
                 ?___wmul 0070                 ?___xxtofl 0039                   _Lcd_Cmd 0C64  
  __end_of_Lcd_Print_Char 0C8C      Lcd_Print_Float@value 0061           __size_of___flge 00A2  
                 ___fladd 0203                   ___awdiv 0DAB                   ___awmod 0D52  
                 ___flmul 049B                   ___flsub 0C8C                   ___fltol 000E  
         __size_of___wmul 0025         ??_Lcd_Print_Float 007E                   __ptext1 0EA5  
                 __ptext2 0D27                   __ptext3 0F47                   __ptext4 008A  
                 __ptext5 000E                   __ptext6 0C8C                   __ptext7 0203  
                 __ptext8 049B                   __ptext9 0CD5                ??___xxtofl 003D  
        ___awmod@dividend 0072                   main@adc 00A0      end_of_initialization 07FC  
         ?_Lcd_Print_Char 0070               ___fladd@grs 007B             ___xxtofl@sign 0041  
       __size_of_ADC_Init 0009         __size_of_ADC_Read 002B               ___flmul@grs 0055  
               _Lcd_Clear 0C57                 _Lcd_Start 0D27            __end_of___flge 0F47  
          __end_of___wmul 0CD5      Lcd_Print_Num@reverse 003F       start_initialization 07FC  
  __size_of_Lcd_Print_Num 0093         Lcd_Print_Num@temp 003D    Lcd_Print_Float@decimal 0065  
  Lcd_Print_Float@integer 0069                ?_Lcd_Clear 0070                  ??___flge 0078  
                ??___wmul 0074                ?_Lcd_Start 0070                 __Umul8_16 0CD5  
               ___fladd@a 0074                 ___fladd@b 0070                 ___flmul@a 004B  
               ___flmul@b 0047                 ___flsub@a 0028                 ___flsub@b 002C  
               ___latbits 0002             __pcstackBANK0 0020             __pcstackBANK1 00A0  
       __size_of___xxtofl 00BC                  ?_Lcd_Cmd 0070           _Lcd_Print_Float 0F47  
           _Lcd_Print_Num 0E12                  ?___fladd 0070                  ?___awdiv 0070  
                ?___awmod 0070                  ?___flmul 0047                  ?___flsub 0028  
                ?___fltol 0030                ?__Umul8_16 0070                  _ADC_Init 0005  
                _ADC_Read 0CFC          ??_Lcd_Print_Char 0070            ___wmul@product 0074  
          ?_Lcd_Print_Num 0039                  Lcd_Cmd@a 0072                  _GO_nDONE 00FA  
             ??_Lcd_Clear 0073               ??_Lcd_Start 0073         ___wmul@multiplier 0070  
               main@input 00A2   __end_of_Lcd_Print_Float 1000          Lcd_Print_Num@rem 003B  
        Lcd_Print_Num@num 0039          __size_of_Lcd_Cmd 0014               ??__Umul8_16 0072  
        __size_of___fladd 0298          __size_of___awdiv 0067          __size_of___awmod 0059  
        __size_of___flmul 0361          __size_of___flsub 0024          __size_of___fltol 007C  
                ___xxtofl 008A                  __ptext10 0E12                  __ptext11 0CB0  
                __ptext12 0D52                  __ptext13 0DAB                  __ptext14 0C78  
                __ptext15 0C57                  __ptext16 0C64                  __ptext17 0CFC  
                __ptext18 0005           ??_Lcd_Print_Num 007E             __size_of_main 00BD  
        ?_Lcd_Print_Float 0061    __Umul8_16@multiplicand 0070             ___fladd@signs 0078  
            ___fladd@aexp 0079              ___fladd@bexp 007A      __Umul8_16@multiplier 0078  
       __Umul8_16@product 0074  
